
kernel.elf:     file format elf32-tradlittlemips


Disassembly of section .bss:

807f0000 <_sbss>:
	...

807f0080 <TCBT>:
	...

807f0088 <current>:
807f0088:	00000000 	nop

Disassembly of section .MIPS.abiflags:

807f0090 <.MIPS.abiflags>:
807f0090:	02200000 	0x2200000
807f0094:	05000101 	bltz	t0,807f049c <_ebss+0x410>
807f0098:	00000000 	nop
	...

Disassembly of section .text.init:

80000000 <INITLOCATE>:
80000000:	3c1a8000 	lui	k0,0x8000
80000004:	275a1780 	addiu	k0,k0,6016
80000008:	03400008 	jr	k0
8000000c:	00000000 	nop

Disassembly of section .text.ebase:

80001000 <TLBREFILL>:
80001000:	00000000 	nop

Disassembly of section .text.ebase180:

80001180 <EHANDLERLOCATE>:
80001180:	3c1a8000 	lui	k0,0x8000
80001184:	275a11f0 	addiu	k0,k0,4592
80001188:	03400008 	jr	k0
8000118c:	00000000 	nop

Disassembly of section .text:

80001190 <SCHEDULE>:
80001190:	3c09807f 	lui	t1,0x807f
80001194:	25290080 	addiu	t1,t1,128
80001198:	8d2a0000 	lw	t2,0(t1)
8000119c:	3c0c807f 	lui	t4,0x807f
800011a0:	8d8b0088 	lw	t3,136(t4)
800011a4:	00000000 	nop
800011a8:	154b0003 	bne	t2,t3,800011b8 <SCHEDULE+0x28>
800011ac:	00000000 	nop
800011b0:	8d2a0004 	lw	t2,4(t1)
800011b4:	00000000 	nop
800011b8:	0140e825 	move	sp,t2
800011bc:	ad9d0088 	sw	sp,136(t4)
800011c0:	080004b6 	j	800012d8 <RETURNFRMTRAP>
800011c4:	00000000 	nop

800011c8 <FATAL>:
800011c8:	34040080 	li	a0,0x80
800011cc:	0c000652 	jal	80001948 <WRITESERIAL>
800011d0:	00000000 	nop
800011d4:	8fa40078 	lw	a0,120(sp)
800011d8:	0c00068f 	jal	80001a3c <WRITESERIALWORD>
800011dc:	00000000 	nop
800011e0:	3c028000 	lui	v0,0x8000
800011e4:	24421780 	addiu	v0,v0,6016
800011e8:	00400008 	jr	v0
800011ec:	00000000 	nop

800011f0 <EXCEPTIONHANDLER>:
800011f0:	401a6000 	mfc0	k0,c0_status
800011f4:	00000000 	nop
800011f8:	3b5b0001 	xori	k1,k0,0x1
800011fc:	037ad024 	and	k0,k1,k0
80001200:	409a6000 	mtc0	k0,c0_status
80001204:	3c1a807f 	lui	k0,0x807f
80001208:	8f5a0088 	lw	k0,136(k0)
8000120c:	af5d007c 	sw	sp,124(k0)
80001210:	0340e825 	move	sp,k0
80001214:	afa10000 	sw	at,0(sp)
80001218:	afa20004 	sw	v0,4(sp)
8000121c:	afa30008 	sw	v1,8(sp)
80001220:	afa4000c 	sw	a0,12(sp)
80001224:	afa50010 	sw	a1,16(sp)
80001228:	afa60014 	sw	a2,20(sp)
8000122c:	afa70018 	sw	a3,24(sp)
80001230:	afa8001c 	sw	t0,28(sp)
80001234:	afa90020 	sw	t1,32(sp)
80001238:	afaa0024 	sw	t2,36(sp)
8000123c:	afab0028 	sw	t3,40(sp)
80001240:	afac002c 	sw	t4,44(sp)
80001244:	afad0030 	sw	t5,48(sp)
80001248:	afae0034 	sw	t6,52(sp)
8000124c:	afaf0038 	sw	t7,56(sp)
80001250:	afb8003c 	sw	t8,60(sp)
80001254:	afb90040 	sw	t9,64(sp)
80001258:	afb00044 	sw	s0,68(sp)
8000125c:	afb10048 	sw	s1,72(sp)
80001260:	afb2004c 	sw	s2,76(sp)
80001264:	afb30050 	sw	s3,80(sp)
80001268:	afb40054 	sw	s4,84(sp)
8000126c:	afb50058 	sw	s5,88(sp)
80001270:	afb6005c 	sw	s6,92(sp)
80001274:	afb70060 	sw	s7,96(sp)
80001278:	afbc0064 	sw	gp,100(sp)
8000127c:	afbe0068 	sw	s8,104(sp)
80001280:	afbf006c 	sw	ra,108(sp)
80001284:	401a6000 	mfc0	k0,c0_status
80001288:	401b6800 	mfc0	k1,c0_cause
8000128c:	afba0070 	sw	k0,112(sp)
80001290:	401a7000 	mfc0	k0,c0_epc
80001294:	afbb0074 	sw	k1,116(sp)
80001298:	afba0078 	sw	k0,120(sp)
8000129c:	401a6800 	mfc0	k0,c0_cause
800012a0:	00000000 	nop
800012a4:	335b00ff 	andi	k1,k0,0xff
800012a8:	001bd882 	srl	k1,k1,0x2
800012ac:	341a0000 	li	k0,0x0
800012b0:	137a002f 	beq	k1,k0,80001370 <WAKEUPSHELL>
800012b4:	00000000 	nop
800012b8:	241a000a 	li	k0,10
800012bc:	137a0035 	beq	k1,k0,80001394 <INVALIDINST>
800012c0:	00000000 	nop
800012c4:	341a0008 	li	k0,0x8
800012c8:	137a003c 	beq	k1,k0,800013bc <SYSCALL>
800012cc:	00000000 	nop
800012d0:	08000472 	j	800011c8 <FATAL>
800012d4:	00000000 	nop

800012d8 <RETURNFRMTRAP>:
800012d8:	8fba0070 	lw	k0,112(sp)
800012dc:	375a0001 	ori	k0,k0,0x1
800012e0:	3b5b0004 	xori	k1,k0,0x4
800012e4:	035bd024 	and	k0,k0,k1
800012e8:	8fbb0078 	lw	k1,120(sp)
800012ec:	409a6000 	mtc0	k0,c0_status
800012f0:	409b7000 	mtc0	k1,c0_epc
800012f4:	8fa10000 	lw	at,0(sp)
800012f8:	8fa20004 	lw	v0,4(sp)
800012fc:	8fa30008 	lw	v1,8(sp)
80001300:	8fa4000c 	lw	a0,12(sp)
80001304:	8fa50010 	lw	a1,16(sp)
80001308:	8fa60014 	lw	a2,20(sp)
8000130c:	8fa70018 	lw	a3,24(sp)
80001310:	8fa8001c 	lw	t0,28(sp)
80001314:	8fa90020 	lw	t1,32(sp)
80001318:	8faa0024 	lw	t2,36(sp)
8000131c:	8fab0028 	lw	t3,40(sp)
80001320:	8fac002c 	lw	t4,44(sp)
80001324:	8fad0030 	lw	t5,48(sp)
80001328:	8fae0034 	lw	t6,52(sp)
8000132c:	8faf0038 	lw	t7,56(sp)
80001330:	8fb8003c 	lw	t8,60(sp)
80001334:	8fb90040 	lw	t9,64(sp)
80001338:	8fb00044 	lw	s0,68(sp)
8000133c:	8fb10048 	lw	s1,72(sp)
80001340:	8fb2004c 	lw	s2,76(sp)
80001344:	8fb30050 	lw	s3,80(sp)
80001348:	8fb40054 	lw	s4,84(sp)
8000134c:	8fb50058 	lw	s5,88(sp)
80001350:	8fb6005c 	lw	s6,92(sp)
80001354:	8fb70060 	lw	s7,96(sp)
80001358:	8fbc0064 	lw	gp,100(sp)
8000135c:	8fbe0068 	lw	s8,104(sp)
80001360:	8fbf006c 	lw	ra,108(sp)
80001364:	8fbd007c 	lw	sp,124(sp)
80001368:	42000018 	eret
8000136c:	00000000 	nop

80001370 <WAKEUPSHELL>:
80001370:	3c09807f 	lui	t1,0x807f
80001374:	8d290088 	lw	t1,136(t1)
80001378:	3c08807f 	lui	t0,0x807f
8000137c:	8d080080 	lw	t0,128(t0)
80001380:	00000000 	nop
80001384:	1509ffd4 	bne	t0,t1,800012d8 <RETURNFRMTRAP>
80001388:	00000000 	nop
8000138c:	08000464 	j	80001190 <SCHEDULE>
80001390:	00000000 	nop

80001394 <INVALIDINST>:
80001394:	24040090 	li	a0,144
80001398:	0c000652 	jal	80001948 <WRITESERIAL>
8000139c:	00000000 	nop
800013a0:	8fa40078 	lw	a0,120(sp)
800013a4:	0c00068f 	jal	80001a3c <WRITESERIALWORD>
800013a8:	00000000 	nop
800013ac:	3c028000 	lui	v0,0x8000
800013b0:	24421780 	addiu	v0,v0,6016
800013b4:	00400008 	jr	v0
800013b8:	00000000 	nop

800013bc <SYSCALL>:
800013bc:	8fba0078 	lw	k0,120(sp)
800013c0:	275a0004 	addiu	k0,k0,4
800013c4:	afba0078 	sw	k0,120(sp)
800013c8:	34080003 	li	t0,0x3
800013cc:	10480009 	beq	v0,t0,800013f4 <.syscall_wait>
800013d0:	00000000 	nop
800013d4:	3408001e 	li	t0,0x1e
800013d8:	10480008 	beq	v0,t0,800013fc <.syscall_putc>
800013dc:	00000000 	nop
800013e0:	34080083 	li	t0,0x83
800013e4:	10480009 	beq	v0,t0,8000140c <.syscall_nan>
800013e8:	00000000 	nop
800013ec:	080004b6 	j	800012d8 <RETURNFRMTRAP>
800013f0:	00000000 	nop

800013f4 <.syscall_wait>:
800013f4:	08000464 	j	80001190 <SCHEDULE>
800013f8:	00000000 	nop

800013fc <.syscall_putc>:
800013fc:	0c000652 	jal	80001948 <WRITESERIAL>
80001400:	00000000 	nop
80001404:	080004b6 	j	800012d8 <RETURNFRMTRAP>
80001408:	00000000 	nop

8000140c <.syscall_nan>:
8000140c:	2751fff8 	addiu	s1,k0,-8
80001410:	03e08025 	move	s0,ra
80001414:	24040091 	li	a0,145
80001418:	0c000652 	jal	80001948 <WRITESERIAL>
8000141c:	00000000 	nop
80001420:	02202025 	move	a0,s1
80001424:	0c00068f 	jal	80001a3c <WRITESERIALWORD>
80001428:	00000000 	nop
8000142c:	0200f825 	move	ra,s0
80001430:	080004b6 	j	800012d8 <RETURNFRMTRAP>
80001434:	00000000 	nop

80001438 <SHELL>:
80001438:	0c00065d 	jal	80001974 <READSERIAL>
8000143c:	00000000 	nop
80001440:	34080052 	li	t0,0x52
80001444:	10480029 	beq	v0,t0,800014ec <.OP_R>
80001448:	00000000 	nop
8000144c:	34080044 	li	t0,0x44
80001450:	10480037 	beq	v0,t0,80001530 <.OP_D>
80001454:	00000000 	nop
80001458:	34080041 	li	t0,0x41
8000145c:	10480049 	beq	v0,t0,80001584 <.OP_A>
80001460:	00000000 	nop
80001464:	34080047 	li	t0,0x47
80001468:	10480064 	beq	v0,t0,800015fc <.OP_G>
8000146c:	00000000 	nop
80001470:	34080054 	li	t0,0x54
80001474:	10480006 	beq	v0,t0,80001490 <.OP_T>
80001478:	00000000 	nop
8000147c:	34080050 	li	t0,0x50
80001480:	10480056 	beq	v0,t0,800015dc <.OP_P>
80001484:	00000000 	nop
80001488:	080005ce 	j	80001738 <.DONE>
8000148c:	00000000 	nop

80001490 <.OP_T>:
80001490:	0c00066a 	jal	800019a8 <READSERIALWORD>
80001494:	00000000 	nop
80001498:	27bdffe8 	addiu	sp,sp,-24
8000149c:	afb00000 	sw	s0,0(sp)
800014a0:	afb10004 	sw	s1,4(sp)
800014a4:	2410ffff 	li	s0,-1
800014a8:	afb0000c 	sw	s0,12(sp)
800014ac:	afb00010 	sw	s0,16(sp)
800014b0:	afb00014 	sw	s0,20(sp)
800014b4:	3411000c 	li	s1,0xc
800014b8:	27b0000c 	addiu	s0,sp,12
800014bc:	82040000 	lb	a0,0(s0)
800014c0:	2631ffff 	addiu	s1,s1,-1
800014c4:	0c000652 	jal	80001948 <WRITESERIAL>
800014c8:	00000000 	nop
800014cc:	26100001 	addiu	s0,s0,1
800014d0:	1620fffa 	bnez	s1,800014bc <.OP_T+0x2c>
800014d4:	00000000 	nop
800014d8:	8fb00000 	lw	s0,0(sp)
800014dc:	8fb10004 	lw	s1,4(sp)
800014e0:	27bd0018 	addiu	sp,sp,24
800014e4:	080005ce 	j	80001738 <.DONE>
800014e8:	00000000 	nop

800014ec <.OP_R>:
800014ec:	27bdfff8 	addiu	sp,sp,-8
800014f0:	afb00000 	sw	s0,0(sp)
800014f4:	afb10004 	sw	s1,4(sp)
800014f8:	3c10807f 	lui	s0,0x807f
800014fc:	34110078 	li	s1,0x78
80001500:	82040000 	lb	a0,0(s0)
80001504:	2631ffff 	addiu	s1,s1,-1
80001508:	0c000652 	jal	80001948 <WRITESERIAL>
8000150c:	00000000 	nop
80001510:	26100001 	addiu	s0,s0,1
80001514:	1620fffa 	bnez	s1,80001500 <.OP_R+0x14>
80001518:	00000000 	nop
8000151c:	8fb00000 	lw	s0,0(sp)
80001520:	8fb10004 	lw	s1,4(sp)
80001524:	27bd0008 	addiu	sp,sp,8
80001528:	080005ce 	j	80001738 <.DONE>
8000152c:	00000000 	nop

80001530 <.OP_D>:
80001530:	27bdfff8 	addiu	sp,sp,-8
80001534:	afb00000 	sw	s0,0(sp)
80001538:	afb10004 	sw	s1,4(sp)
8000153c:	0c00066a 	jal	800019a8 <READSERIALWORD>
80001540:	00000000 	nop
80001544:	00408025 	move	s0,v0
80001548:	0c00066a 	jal	800019a8 <READSERIALWORD>
8000154c:	00000000 	nop
80001550:	00408825 	move	s1,v0
80001554:	82040000 	lb	a0,0(s0)
80001558:	2631ffff 	addiu	s1,s1,-1
8000155c:	0c000652 	jal	80001948 <WRITESERIAL>
80001560:	00000000 	nop
80001564:	26100001 	addiu	s0,s0,1
80001568:	1620fffa 	bnez	s1,80001554 <.OP_D+0x24>
8000156c:	00000000 	nop
80001570:	8fb00000 	lw	s0,0(sp)
80001574:	8fb10004 	lw	s1,4(sp)
80001578:	27bd0008 	addiu	sp,sp,8
8000157c:	080005ce 	j	80001738 <.DONE>
80001580:	00000000 	nop

80001584 <.OP_A>:
80001584:	27bdfff8 	addiu	sp,sp,-8
80001588:	afb00000 	sw	s0,0(sp)
8000158c:	afb10004 	sw	s1,4(sp)
80001590:	0c00066a 	jal	800019a8 <READSERIALWORD>
80001594:	00000000 	nop
80001598:	00408025 	move	s0,v0
8000159c:	0c00066a 	jal	800019a8 <READSERIALWORD>
800015a0:	00000000 	nop
800015a4:	00408825 	move	s1,v0
800015a8:	00118882 	srl	s1,s1,0x2
800015ac:	0c00066a 	jal	800019a8 <READSERIALWORD>
800015b0:	00000000 	nop
800015b4:	ae020000 	sw	v0,0(s0)
800015b8:	2631ffff 	addiu	s1,s1,-1
800015bc:	26100004 	addiu	s0,s0,4
800015c0:	1620fffa 	bnez	s1,800015ac <.OP_A+0x28>
800015c4:	00000000 	nop
800015c8:	8fb00000 	lw	s0,0(sp)
800015cc:	8fb10004 	lw	s1,4(sp)
800015d0:	27bd0008 	addiu	sp,sp,8
800015d4:	080005ce 	j	80001738 <.DONE>
800015d8:	00000000 	nop

800015dc <.OP_P>:
800015dc:	3c048047 	lui	a0,0x8047
800015e0:	34845300 	ori	a0,a0,0x5300
800015e4:	0c00084e 	jal	80002138 <CV_show_img>
800015e8:	00000000 	nop
800015ec:	0c000a06 	jal	80002818 <TB_main>
800015f0:	00000000 	nop
800015f4:	080005ce 	j	80001738 <.DONE>
800015f8:	00000000 	nop

800015fc <.OP_G>:
800015fc:	0c00066a 	jal	800019a8 <READSERIALWORD>
80001600:	00000000 	nop
80001604:	34040006 	li	a0,0x6
80001608:	0c000652 	jal	80001948 <WRITESERIAL>
8000160c:	00000000 	nop
80001610:	40827000 	mtc0	v0,c0_epc
80001614:	3c1f807f 	lui	ra,0x807f
80001618:	27ff0000 	addiu	ra,ra,0
8000161c:	afe20078 	sw	v0,120(ra)
80001620:	affd007c 	sw	sp,124(ra)
80001624:	8fe10000 	lw	at,0(ra)
80001628:	8fe20004 	lw	v0,4(ra)
8000162c:	8fe30008 	lw	v1,8(ra)
80001630:	8fe4000c 	lw	a0,12(ra)
80001634:	8fe50010 	lw	a1,16(ra)
80001638:	8fe60014 	lw	a2,20(ra)
8000163c:	8fe70018 	lw	a3,24(ra)
80001640:	8fe8001c 	lw	t0,28(ra)
80001644:	8fe90020 	lw	t1,32(ra)
80001648:	8fea0024 	lw	t2,36(ra)
8000164c:	8feb0028 	lw	t3,40(ra)
80001650:	8fec002c 	lw	t4,44(ra)
80001654:	8fed0030 	lw	t5,48(ra)
80001658:	8fee0034 	lw	t6,52(ra)
8000165c:	8fef0038 	lw	t7,56(ra)
80001660:	8ff0003c 	lw	s0,60(ra)
80001664:	8ff10040 	lw	s1,64(ra)
80001668:	8ff20044 	lw	s2,68(ra)
8000166c:	8ff30048 	lw	s3,72(ra)
80001670:	8ff4004c 	lw	s4,76(ra)
80001674:	8ff50050 	lw	s5,80(ra)
80001678:	8ff60054 	lw	s6,84(ra)
8000167c:	8ff70058 	lw	s7,88(ra)
80001680:	8ff8005c 	lw	t8,92(ra)
80001684:	8ff90060 	lw	t9,96(ra)
80001688:	8ffc006c 	lw	gp,108(ra)
8000168c:	8ffd0070 	lw	sp,112(ra)
80001690:	8ffe0074 	lw	s8,116(ra)
80001694:	3c1f8000 	lui	ra,0x8000
80001698:	27ff16a4 	addiu	ra,ra,5796
8000169c:	00000000 	nop
800016a0:	42000018 	eret

800016a4 <.USERRET2>:
800016a4:	00000000 	nop
800016a8:	3c1f807f 	lui	ra,0x807f
800016ac:	27ff0000 	addiu	ra,ra,0
800016b0:	afe10000 	sw	at,0(ra)
800016b4:	afe20004 	sw	v0,4(ra)
800016b8:	afe30008 	sw	v1,8(ra)
800016bc:	afe4000c 	sw	a0,12(ra)
800016c0:	afe50010 	sw	a1,16(ra)
800016c4:	afe60014 	sw	a2,20(ra)
800016c8:	afe70018 	sw	a3,24(ra)
800016cc:	afe8001c 	sw	t0,28(ra)
800016d0:	afe90020 	sw	t1,32(ra)
800016d4:	afea0024 	sw	t2,36(ra)
800016d8:	afeb0028 	sw	t3,40(ra)
800016dc:	afec002c 	sw	t4,44(ra)
800016e0:	afed0030 	sw	t5,48(ra)
800016e4:	afee0034 	sw	t6,52(ra)
800016e8:	afef0038 	sw	t7,56(ra)
800016ec:	aff0003c 	sw	s0,60(ra)
800016f0:	aff10040 	sw	s1,64(ra)
800016f4:	aff20044 	sw	s2,68(ra)
800016f8:	aff30048 	sw	s3,72(ra)
800016fc:	aff4004c 	sw	s4,76(ra)
80001700:	aff50050 	sw	s5,80(ra)
80001704:	aff60054 	sw	s6,84(ra)
80001708:	aff70058 	sw	s7,88(ra)
8000170c:	aff8005c 	sw	t8,92(ra)
80001710:	aff90060 	sw	t9,96(ra)
80001714:	affc006c 	sw	gp,108(ra)
80001718:	affd0070 	sw	sp,112(ra)
8000171c:	affe0074 	sw	s8,116(ra)
80001720:	8ffd007c 	lw	sp,124(ra)
80001724:	34040007 	li	a0,0x7
80001728:	0c000652 	jal	80001948 <WRITESERIAL>
8000172c:	00000000 	nop
80001730:	080005ce 	j	80001738 <.DONE>
80001734:	00000000 	nop

80001738 <.DONE>:
80001738:	0800050e 	j	80001438 <SHELL>
8000173c:	00000000 	nop

80001740 <monitor_version>:
80001740:	636c6557 	0x636c6557
80001744:	20656d6f 	addi	a1,v1,28015
80001748:	46206f74 	cabs.olt.d	$fcc7,$f13,$f0
8000174c:	61746e61 	0x61746e61
80001750:	53207973 	beqzl	t9,8001fd20 <.wait_loop+0x1d318>
80001754:	65636170 	0x65636170
80001758:	6f4d2021 	0x6f4d2021
8000175c:	6f74696e 	0x6f74696e
80001760:	656b2072 	0x656b2072
80001764:	6c656e72 	0x6c656e72
80001768:	696e6920 	0x696e6920
8000176c:	6c616974 	0x6c616974
80001770:	64657a69 	0x64657a69
80001774:	0000002e 	0x2e
80001778:	807f0000 	lb	ra,0(v1)
8000177c:	807f008c 	lb	ra,140(v1)

80001780 <START>:
80001780:	3c1a807f 	lui	k0,0x807f
80001784:	275a0000 	addiu	k0,k0,0
80001788:	3c1b807f 	lui	k1,0x807f
8000178c:	277b008c 	addiu	k1,k1,140

80001790 <bss_init>:
80001790:	135b0005 	beq	k0,k1,800017a8 <bss_init_done>
80001794:	00000000 	nop
80001798:	af400000 	sw	zero,0(k0)
8000179c:	275a0004 	addiu	k0,k0,4
800017a0:	1000fffb 	b	80001790 <bss_init>
800017a4:	00000000 	nop

800017a8 <bss_init_done>:
800017a8:	40086000 	mfc0	t0,c0_status
800017ac:	00000000 	nop
800017b0:	3909ff07 	xori	t1,t0,0xff07
800017b4:	01094024 	and	t0,t0,t1
800017b8:	40886000 	mtc0	t0,c0_status
800017bc:	00000000 	nop
800017c0:	40086000 	mfc0	t0,c0_status
800017c4:	3c090040 	lui	t1,0x40
800017c8:	01094826 	xor	t1,t0,t1
800017cc:	01094024 	and	t0,t0,t1
800017d0:	40886000 	mtc0	t0,c0_status
800017d4:	340a1000 	li	t2,0x1000
800017d8:	408a7801 	mtc0	t2,c0_ebase
800017dc:	40086800 	mfc0	t0,c0_cause
800017e0:	3c090080 	lui	t1,0x80
800017e4:	01284826 	xor	t1,t1,t0
800017e8:	01094024 	and	t0,t0,t1
800017ec:	40886800 	mtc0	t0,c0_cause
800017f0:	3c1d8080 	lui	sp,0x8080
800017f4:	27bd0000 	addiu	sp,sp,0
800017f8:	03a0f025 	move	s8,sp
800017fc:	3c08807f 	lui	t0,0x807f
80001800:	25080000 	addiu	t0,t0,0
80001804:	3c09807f 	lui	t1,0x807f
80001808:	ad280070 	sw	t0,112(t1)
8000180c:	3c09807f 	lui	t1,0x807f
80001810:	ad280074 	sw	t0,116(t1)
80001814:	3c08bfd0 	lui	t0,0xbfd0
80001818:	34090010 	li	t1,0x10
8000181c:	a10903fc 	sb	t1,1020(t0)
80001820:	40086000 	mfc0	t0,c0_status
80001824:	35081000 	ori	t0,t0,0x1000
80001828:	40886000 	mtc0	t0,c0_status
8000182c:	34080020 	li	t0,0x20
80001830:	2508ffff 	addiu	t0,t0,-1
80001834:	27bdfffc 	addiu	sp,sp,-4
80001838:	afa00000 	sw	zero,0(sp)
8000183c:	1500fffc 	bnez	t0,80001830 <bss_init_done+0x88>
80001840:	00000000 	nop
80001844:	3c08807f 	lui	t0,0x807f
80001848:	25080080 	addiu	t0,t0,128
8000184c:	ad1d0000 	sw	sp,0(t0)
80001850:	40096000 	mfc0	t1,c0_status
80001854:	400a6800 	mfc0	t2,c0_cause
80001858:	35290001 	ori	t1,t1,0x1
8000185c:	afaa0074 	sw	t2,116(sp)
80001860:	afa90070 	sw	t1,112(sp)
80001864:	3c0b8000 	lui	t3,0x8000
80001868:	256b190c 	addiu	t3,t3,6412
8000186c:	afab0078 	sw	t3,120(sp)
80001870:	03a07025 	move	t6,sp
80001874:	34080020 	li	t0,0x20
80001878:	2508ffff 	addiu	t0,t0,-1
8000187c:	27bdfffc 	addiu	sp,sp,-4
80001880:	afa00000 	sw	zero,0(sp)
80001884:	1500fffc 	bnez	t0,80001878 <bss_init_done+0xd0>
80001888:	00000000 	nop
8000188c:	3c08807f 	lui	t0,0x807f
80001890:	25080080 	addiu	t0,t0,128
80001894:	ad1d0004 	sw	sp,4(t0)
80001898:	addd007c 	sw	sp,124(t6)
8000189c:	3c0a807f 	lui	t2,0x807f
800018a0:	254a0084 	addiu	t2,t2,132
800018a4:	8d4a0000 	lw	t2,0(t2)
800018a8:	3c09807f 	lui	t1,0x807f
800018ac:	ad2a0088 	sw	t2,136(t1)
800018b0:	40086000 	mfc0	t0,c0_status
800018b4:	00000000 	nop
800018b8:	35080001 	ori	t0,t0,0x1
800018bc:	39091000 	xori	t1,t0,0x1000
800018c0:	01094024 	and	t0,t0,t1
800018c4:	40886000 	mtc0	t0,c0_status
800018c8:	00000000 	nop
800018cc:	08000635 	j	800018d4 <WELCOME>
800018d0:	00000000 	nop

800018d4 <WELCOME>:
800018d4:	3c108000 	lui	s0,0x8000
800018d8:	26101740 	addiu	s0,s0,5952
800018dc:	82040000 	lb	a0,0(s0)
800018e0:	26100001 	addiu	s0,s0,1
800018e4:	0c000652 	jal	80001948 <WRITESERIAL>
800018e8:	00000000 	nop
800018ec:	82040000 	lb	a0,0(s0)
800018f0:	1480fffb 	bnez	a0,800018e0 <WELCOME+0xc>
800018f4:	00000000 	nop
800018f8:	3c048040 	lui	a0,0x8040
800018fc:	0c00084e 	jal	80002138 <CV_show_img>
80001900:	00000000 	nop
80001904:	0800050e 	j	80001438 <SHELL>
80001908:	00000000 	nop

8000190c <IDLELOOP>:
	...
80001934:	08000643 	j	8000190c <IDLELOOP>
80001938:	00000000 	nop

8000193c <GET_CUR_PC>:
8000193c:	03e01025 	move	v0,ra
80001940:	03e00008 	jr	ra
80001944:	00000000 	nop

80001948 <WRITESERIAL>:
80001948:	3c09bfd0 	lui	t1,0xbfd0

8000194c <.TESTW>:
8000194c:	812803fc 	lb	t0,1020(t1)
80001950:	31080001 	andi	t0,t0,0x1
80001954:	15000003 	bnez	t0,80001964 <.WSERIAL>
80001958:	00000000 	nop
8000195c:	08000653 	j	8000194c <.TESTW>
80001960:	00000000 	nop

80001964 <.WSERIAL>:
80001964:	3c09bfd0 	lui	t1,0xbfd0
80001968:	a12403f8 	sb	a0,1016(t1)
8000196c:	03e00008 	jr	ra
80001970:	00000000 	nop

80001974 <READSERIAL>:
80001974:	3c09bfd0 	lui	t1,0xbfd0

80001978 <.TESTR>:
80001978:	812803fc 	lb	t0,1020(t1)
8000197c:	31080002 	andi	t0,t0,0x2
80001980:	15000005 	bnez	t0,80001998 <.RSERIAL>
80001984:	00000000 	nop
80001988:	34020003 	li	v0,0x3
8000198c:	0000200c 	syscall	0x80
80001990:	0800065e 	j	80001978 <.TESTR>
80001994:	00000000 	nop

80001998 <.RSERIAL>:
80001998:	3c09bfd0 	lui	t1,0xbfd0
8000199c:	812203f8 	lb	v0,1016(t1)
800019a0:	03e00008 	jr	ra
800019a4:	00000000 	nop

800019a8 <READSERIALWORD>:
800019a8:	27bdffec 	addiu	sp,sp,-20
800019ac:	afbf0000 	sw	ra,0(sp)
800019b0:	afb00004 	sw	s0,4(sp)
800019b4:	afb10008 	sw	s1,8(sp)
800019b8:	afb2000c 	sw	s2,12(sp)
800019bc:	afb30010 	sw	s3,16(sp)
800019c0:	0c00065d 	jal	80001974 <READSERIAL>
800019c4:	00000000 	nop
800019c8:	00028025 	or	s0,zero,v0
800019cc:	0c00065d 	jal	80001974 <READSERIAL>
800019d0:	00000000 	nop
800019d4:	00028825 	or	s1,zero,v0
800019d8:	0c00065d 	jal	80001974 <READSERIAL>
800019dc:	00000000 	nop
800019e0:	00029025 	or	s2,zero,v0
800019e4:	0c00065d 	jal	80001974 <READSERIAL>
800019e8:	00000000 	nop
800019ec:	00029825 	or	s3,zero,v0
800019f0:	321000ff 	andi	s0,s0,0xff
800019f4:	327300ff 	andi	s3,s3,0xff
800019f8:	325200ff 	andi	s2,s2,0xff
800019fc:	323100ff 	andi	s1,s1,0xff
80001a00:	00131025 	or	v0,zero,s3
80001a04:	00021200 	sll	v0,v0,0x8
80001a08:	00521025 	or	v0,v0,s2
80001a0c:	00021200 	sll	v0,v0,0x8
80001a10:	00511025 	or	v0,v0,s1
80001a14:	00021200 	sll	v0,v0,0x8
80001a18:	00501025 	or	v0,v0,s0
80001a1c:	8fbf0000 	lw	ra,0(sp)
80001a20:	8fb00004 	lw	s0,4(sp)
80001a24:	8fb10008 	lw	s1,8(sp)
80001a28:	8fb2000c 	lw	s2,12(sp)
80001a2c:	8fb30010 	lw	s3,16(sp)
80001a30:	27bd0014 	addiu	sp,sp,20
80001a34:	03e00008 	jr	ra
80001a38:	00000000 	nop

80001a3c <WRITESERIALWORD>:
80001a3c:	27bdffec 	addiu	sp,sp,-20
80001a40:	afbf0000 	sw	ra,0(sp)
80001a44:	afb00004 	sw	s0,4(sp)
80001a48:	afb10008 	sw	s1,8(sp)
80001a4c:	afb2000c 	sw	s2,12(sp)
80001a50:	afb30010 	sw	s3,16(sp)
80001a54:	0c000652 	jal	80001948 <WRITESERIAL>
80001a58:	00000000 	nop
80001a5c:	00042202 	srl	a0,a0,0x8
80001a60:	0c000652 	jal	80001948 <WRITESERIAL>
80001a64:	00000000 	nop
80001a68:	00042202 	srl	a0,a0,0x8
80001a6c:	0c000652 	jal	80001948 <WRITESERIAL>
80001a70:	00000000 	nop
80001a74:	00042202 	srl	a0,a0,0x8
80001a78:	0c000652 	jal	80001948 <WRITESERIAL>
80001a7c:	00000000 	nop
80001a80:	8fbf0000 	lw	ra,0(sp)
80001a84:	8fb00004 	lw	s0,4(sp)
80001a88:	8fb10008 	lw	s1,8(sp)
80001a8c:	8fb2000c 	lw	s2,12(sp)
80001a90:	8fb30010 	lw	s3,16(sp)
80001a94:	27bd0014 	addiu	sp,sp,20
80001a98:	03e00008 	jr	ra
80001a9c:	00000000 	nop
	...

80002000 <UTEST_SIMPLE>:
80002000:	24420001 	addiu	v0,v0,1
80002004:	03e00008 	jr	ra
80002008:	00000000 	nop

8000200c <UTEST_PUTC>:
8000200c:	3402001e 	li	v0,0x1e
80002010:	3404004f 	li	a0,0x4f
80002014:	0000200c 	syscall	0x80
80002018:	00000000 	nop
8000201c:	3404004b 	li	a0,0x4b
80002020:	0000200c 	syscall	0x80
80002024:	00000000 	nop

80002028 <PUTC_begin>:
80002028:	24080020 	li	t0,32

8000202c <PUTC_loop>:
8000202c:	25080001 	addiu	t0,t0,1
80002030:	2402001e 	li	v0,30
80002034:	01002025 	move	a0,t0
80002038:	0000200c 	syscall	0x80
8000203c:	00000000 	nop
80002040:	2509ff81 	addiu	t1,t0,-127
80002044:	1520fff9 	bnez	t1,8000202c <PUTC_loop>
80002048:	00000000 	nop
8000204c:	03e00008 	jr	ra
80002050:	00000000 	nop

80002054 <UTEST_RI>:
80002054:	2d080001 	sltiu	t0,t0,1
80002058:	03e00008 	jr	ra
8000205c:	00000000 	nop

80002060 <UTEST_1PTB>:
80002060:	3c080400 	lui	t0,0x400
	...
80002070:	2508ffff 	addiu	t0,t0,-1
80002074:	34090000 	li	t1,0x0
80002078:	340a0001 	li	t2,0x1
8000207c:	340b0002 	li	t3,0x2
80002080:	1500fffb 	bnez	t0,80002070 <UTEST_1PTB+0x10>
80002084:	00000000 	nop
80002088:	00000000 	nop
8000208c:	03e00008 	jr	ra
80002090:	00000000 	nop

80002094 <UTEST_2DCT>:
80002094:	3c080100 	lui	t0,0x100
80002098:	34090001 	li	t1,0x1
8000209c:	340a0002 	li	t2,0x2
800020a0:	340b0003 	li	t3,0x3
800020a4:	01495026 	xor	t2,t2,t1
800020a8:	012a4826 	xor	t1,t1,t2
800020ac:	01495026 	xor	t2,t2,t1
800020b0:	016a5826 	xor	t3,t3,t2
800020b4:	014b5026 	xor	t2,t2,t3
800020b8:	016a5826 	xor	t3,t3,t2
800020bc:	012b4826 	xor	t1,t1,t3
800020c0:	01695826 	xor	t3,t3,t1
800020c4:	012b4826 	xor	t1,t1,t3
800020c8:	2508ffff 	addiu	t0,t0,-1
800020cc:	1500fff5 	bnez	t0,800020a4 <UTEST_2DCT+0x10>
800020d0:	00000000 	nop
800020d4:	03e00008 	jr	ra
800020d8:	00000000 	nop

800020dc <UTEST_3CCT>:
800020dc:	3c080400 	lui	t0,0x400
800020e0:	15000003 	bnez	t0,800020f0 <UTEST_3CCT+0x14>
800020e4:	00000000 	nop
800020e8:	03e00008 	jr	ra
800020ec:	00000000 	nop
800020f0:	0800083e 	j	800020f8 <UTEST_3CCT+0x1c>
800020f4:	00000000 	nop
800020f8:	2508ffff 	addiu	t0,t0,-1
800020fc:	08000838 	j	800020e0 <UTEST_3CCT+0x4>
80002100:	2508ffff 	addiu	t0,t0,-1
80002104:	00000000 	nop

80002108 <UTEST_4MDCT>:
80002108:	3c080200 	lui	t0,0x200
8000210c:	27bdfffc 	addiu	sp,sp,-4
80002110:	afa80000 	sw	t0,0(sp)
80002114:	8fa90000 	lw	t1,0(sp)
80002118:	2529ffff 	addiu	t1,t1,-1
8000211c:	afa90000 	sw	t1,0(sp)
80002120:	8fa80000 	lw	t0,0(sp)
80002124:	1500fffa 	bnez	t0,80002110 <UTEST_4MDCT+0x8>
80002128:	00000000 	nop
8000212c:	27bd0004 	addiu	sp,sp,4
80002130:	03e00008 	jr	ra
80002134:	00000000 	nop

80002138 <CV_show_img>:
80002138:	3c09a000 	lui	t1,0xa000
8000213c:	00805025 	move	t2,a0
80002140:	3c0b0007 	lui	t3,0x7
80002144:	356b5300 	ori	t3,t3,0x5300
80002148:	012b4821 	addu	t1,t1,t3
8000214c:	014b5021 	addu	t2,t2,t3

80002150 <.show_img_draw>:
80002150:	81480000 	lb	t0,0(t2)
80002154:	a1280000 	sb	t0,0(t1)
80002158:	256bffff 	addiu	t3,t3,-1
8000215c:	2529ffff 	addiu	t1,t1,-1
80002160:	254affff 	addiu	t2,t2,-1
80002164:	1560fffa 	bnez	t3,80002150 <.show_img_draw>
80002168:	00000000 	nop
8000216c:	03e00008 	jr	ra
80002170:	00000000 	nop

80002174 <CV_draw_pt>:
80002174:	24080320 	li	t0,800
80002178:	70a82802 	mul	a1,a1,t0
8000217c:	00852021 	addu	a0,a0,a1
80002180:	3c09a000 	lui	t1,0xa000
80002184:	00892021 	addu	a0,a0,t1
80002188:	03e00008 	jr	ra
8000218c:	a0860000 	sb	a2,0(a0)

80002190 <CV_draw_square>:
80002190:	27bdffe4 	addiu	sp,sp,-28
80002194:	afbf0000 	sw	ra,0(sp)
80002198:	afb00004 	sw	s0,4(sp)
8000219c:	afb10008 	sw	s1,8(sp)
800021a0:	afb2000c 	sw	s2,12(sp)
800021a4:	afb30010 	sw	s3,16(sp)
800021a8:	afb40014 	sw	s4,20(sp)
800021ac:	afb50018 	sw	s5,24(sp)
800021b0:	24150320 	li	s5,800
800021b4:	00868023 	subu	s0,a0,a2
800021b8:	00868821 	addu	s1,a0,a2
800021bc:	00a69023 	subu	s2,a1,a2
800021c0:	00a69821 	addu	s3,a1,a2
800021c4:	3c14a000 	lui	s4,0xa000
800021c8:	02403025 	move	a2,s2

800021cc <loop_i>:
800021cc:	02006825 	move	t5,s0
800021d0:	70d52802 	mul	a1,a2,s5
800021d4:	00b02821 	addu	a1,a1,s0
800021d8:	02852821 	addu	a1,s4,a1

800021dc <loop_j>:
800021dc:	a0a70000 	sb	a3,0(a1)
800021e0:	24a50001 	addiu	a1,a1,1
800021e4:	25ad0001 	addiu	t5,t5,1
800021e8:	15b1fffc 	bne	t5,s1,800021dc <loop_j>
800021ec:	00000000 	nop
800021f0:	24c60001 	addiu	a2,a2,1
800021f4:	14d3fff5 	bne	a2,s3,800021cc <loop_i>
800021f8:	00000000 	nop
800021fc:	8fbf0000 	lw	ra,0(sp)
80002200:	8fb00004 	lw	s0,4(sp)
80002204:	8fb10008 	lw	s1,8(sp)
80002208:	8fb2000c 	lw	s2,12(sp)
8000220c:	8fb30010 	lw	s3,16(sp)
80002210:	8fb40014 	lw	s4,20(sp)
80002214:	8fb50018 	lw	s5,24(sp)
80002218:	27bd001c 	addiu	sp,sp,28
8000221c:	03e00008 	jr	ra
80002220:	00000000 	nop

80002224 <UTEST_drawpt>:
80002224:	27bdfffc 	addiu	sp,sp,-4
80002228:	afbf0000 	sw	ra,0(sp)
8000222c:	24040190 	li	a0,400
80002230:	2405012c 	li	a1,300
80002234:	240600e3 	li	a2,227
80002238:	0c00085d 	jal	80002174 <CV_draw_pt>
8000223c:	00000000 	nop
80002240:	24040191 	li	a0,401
80002244:	2405012c 	li	a1,300
80002248:	240600e3 	li	a2,227
8000224c:	0c00085d 	jal	80002174 <CV_draw_pt>
80002250:	00000000 	nop
80002254:	24040190 	li	a0,400
80002258:	2405012d 	li	a1,301
8000225c:	240600e3 	li	a2,227
80002260:	0c00085d 	jal	80002174 <CV_draw_pt>
80002264:	00000000 	nop
80002268:	24040191 	li	a0,401
8000226c:	2405012d 	li	a1,301
80002270:	240600e3 	li	a2,227
80002274:	0c00085d 	jal	80002174 <CV_draw_pt>
80002278:	00000000 	nop
8000227c:	8fbf0000 	lw	ra,0(sp)
80002280:	27bd0004 	addiu	sp,sp,4
80002284:	03e00008 	jr	ra
80002288:	00000000 	nop

8000228c <UTEST_drawsqr>:
8000228c:	24040190 	li	a0,400
80002290:	2405012c 	li	a1,300
80002294:	24060064 	li	a2,100
80002298:	240700e3 	li	a3,227
8000229c:	08000864 	j	80002190 <CV_draw_square>
800022a0:	00000000 	nop

800022a4 <fpn_mul>:
800022a4:	00850018 	mult	a0,a1
800022a8:	00001010 	mfhi	v0
800022ac:	00021400 	sll	v0,v0,0x10
800022b0:	00004012 	mflo	t0
800022b4:	00084402 	srl	t0,t0,0x10
800022b8:	00481021 	addu	v0,v0,t0
800022bc:	03e00008 	jr	ra
800022c0:	00000000 	nop

800022c4 <fpn_div>:
800022c4:	10a00025 	beqz	a1,8000235c <.div_by_zero>
800022c8:	00000000 	nop
800022cc:	3c0d8000 	lui	t5,0x8000
800022d0:	008d5824 	and	t3,a0,t5
800022d4:	11600003 	beqz	t3,800022e4 <.div_a_pos>
800022d8:	00000000 	nop
800022dc:	00042023 	negu	a0,a0
800022e0:	240c0001 	li	t4,1

800022e4 <.div_a_pos>:
800022e4:	00ad5824 	and	t3,a1,t5
800022e8:	11600003 	beqz	t3,800022f8 <.div_a_b_pos>
800022ec:	00000000 	nop
800022f0:	00052823 	negu	a1,a1
800022f4:	398c0001 	xori	t4,t4,0x1

800022f8 <.div_a_b_pos>:
800022f8:	0085001b 	divu	zero,a0,a1
800022fc:	00001012 	mflo	v0
80002300:	00021400 	sll	v0,v0,0x10
80002304:	00004810 	mfhi	t1
80002308:	24080010 	li	t0,16
8000230c:	240a0000 	li	t2,0

80002310 <.div_loop>:
80002310:	00094840 	sll	t1,t1,0x1
80002314:	000a5040 	sll	t2,t2,0x1
80002318:	01255823 	subu	t3,t1,a1
8000231c:	05600003 	bltz	t3,8000232c <.div_loop_final>
80002320:	00000000 	nop

80002324 <.div_plus_d>:
80002324:	254a0001 	addiu	t2,t2,1
80002328:	01604825 	move	t1,t3

8000232c <.div_loop_final>:
8000232c:	2508ffff 	addiu	t0,t0,-1
80002330:	1500fff7 	bnez	t0,80002310 <.div_loop>
80002334:	00000000 	nop

80002338 <.div_finally>:
80002338:	004a1021 	addu	v0,v0,t2
8000233c:	11800003 	beqz	t4,8000234c <.div_ret>
80002340:	00000000 	nop
80002344:	00021023 	negu	v0,v0
80002348:	00000000 	nop

8000234c <.div_ret>:
8000234c:	03e00008 	jr	ra
80002350:	00000000 	nop
	...

8000235c <.div_by_zero>:
8000235c:	24020083 	li	v0,131
80002360:	0000200c 	syscall	0x80
80002364:	00000000 	nop
80002368:	03e00008 	jr	ra
8000236c:	00000000 	nop

80002370 <UTEST_div>:
80002370:	2404cfd9 	li	a0,-12327
80002374:	3c050002 	lui	a1,0x2
80002378:	34a5fce6 	ori	a1,a1,0xfce6
8000237c:	080008b1 	j	800022c4 <fpn_div>
80002380:	00000000 	nop
80002384:	00000000 	nop

80002388 <fpn_sqrt>:
80002388:	1c800005 	bgtz	a0,800023a0 <.sqrt_common>
8000238c:	00000000 	nop
80002390:	0480001c 	bltz	a0,80002404 <.sqrt_neg>
80002394:	24020000 	li	v0,0
80002398:	03e00008 	jr	ra
8000239c:	00000000 	nop

800023a0 <.sqrt_common>:
800023a0:	27bdfff0 	addiu	sp,sp,-16
800023a4:	afbf000c 	sw	ra,12(sp)
800023a8:	afb00008 	sw	s0,8(sp)
800023ac:	afb10004 	sw	s1,4(sp)
800023b0:	afb20000 	sw	s2,0(sp)
800023b4:	00048042 	srl	s0,a0,0x1
800023b8:	00808825 	move	s1,a0
800023bc:	2412000a 	li	s2,10

800023c0 <.sqrt_loop>:
800023c0:	02202025 	move	a0,s1
800023c4:	02002825 	move	a1,s0
800023c8:	0c0008b1 	jal	800022c4 <fpn_div>
800023cc:	00000000 	nop
800023d0:	02028021 	addu	s0,s0,v0
800023d4:	2652ffff 	addiu	s2,s2,-1
800023d8:	00108042 	srl	s0,s0,0x1
800023dc:	1640fff8 	bnez	s2,800023c0 <.sqrt_loop>
800023e0:	00000000 	nop
800023e4:	02001025 	move	v0,s0
800023e8:	8fbf000c 	lw	ra,12(sp)
800023ec:	8fb00008 	lw	s0,8(sp)
800023f0:	8fb10004 	lw	s1,4(sp)
800023f4:	8fb20000 	lw	s2,0(sp)
800023f8:	27bd0010 	addiu	sp,sp,16
800023fc:	03e00008 	jr	ra
80002400:	00000000 	nop

80002404 <.sqrt_neg>:
80002404:	00000000 	nop
80002408:	08000901 	j	80002404 <.sqrt_neg>
8000240c:	00000000 	nop
80002410:	24020083 	li	v0,131
80002414:	0000200c 	syscall	0x80
80002418:	00000000 	nop
8000241c:	03e00008 	jr	ra
80002420:	00000000 	nop

80002424 <TB_dist>:
80002424:	27bdfff4 	addiu	sp,sp,-12
80002428:	afbf0000 	sw	ra,0(sp)
8000242c:	afb00004 	sw	s0,4(sp)
80002430:	afb10008 	sw	s1,8(sp)
80002434:	00864022 	sub	t0,a0,a2
80002438:	00a78822 	sub	s1,a1,a3
8000243c:	01002025 	move	a0,t0
80002440:	01002825 	move	a1,t0
80002444:	0c0008a9 	jal	800022a4 <fpn_mul>
80002448:	00000000 	nop
8000244c:	00408025 	move	s0,v0
80002450:	02202025 	move	a0,s1
80002454:	02202825 	move	a1,s1
80002458:	0c0008a9 	jal	800022a4 <fpn_mul>
8000245c:	00000000 	nop
80002460:	00502021 	addu	a0,v0,s0
80002464:	0c0008e2 	jal	80002388 <fpn_sqrt>
80002468:	00000000 	nop
8000246c:	8fbf0000 	lw	ra,0(sp)
80002470:	8fb00004 	lw	s0,4(sp)
80002474:	8fb10008 	lw	s1,8(sp)
80002478:	27bd000c 	addiu	sp,sp,12
8000247c:	03e00008 	jr	ra
80002480:	00000000 	nop

80002484 <UTEST_dist>:
80002484:	3c040014 	lui	a0,0x14
80002488:	34847439 	ori	a0,a0,0x7439
8000248c:	2405f980 	li	a1,-1664
80002490:	3c06fff5 	lui	a2,0xfff5
80002494:	34c6c51f 	ori	a2,a2,0xc51f
80002498:	3c07fffe 	lui	a3,0xfffe
8000249c:	08000909 	j	80002424 <TB_dist>
800024a0:	00000000 	nop

800024a4 <TB_gravity>:
800024a4:	27bdfff0 	addiu	sp,sp,-16
800024a8:	afbf0000 	sw	ra,0(sp)
800024ac:	afb00004 	sw	s0,4(sp)
800024b0:	afb10008 	sw	s1,8(sp)
800024b4:	afb2000c 	sw	s2,12(sp)
800024b8:	00808025 	move	s0,a0
800024bc:	00a08825 	move	s1,a1
800024c0:	0c000909 	jal	80002424 <TB_dist>
800024c4:	00000000 	nop
800024c8:	00409025 	move	s2,v0
800024cc:	00402025 	move	a0,v0
800024d0:	00402825 	move	a1,v0
800024d4:	0c0008a9 	jal	800022a4 <fpn_mul>
800024d8:	00000000 	nop
800024dc:	00402025 	move	a0,v0
800024e0:	02402825 	move	a1,s2
800024e4:	0c0008a9 	jal	800022a4 <fpn_mul>
800024e8:	00000000 	nop
800024ec:	00409025 	move	s2,v0
800024f0:	00f12023 	subu	a0,a3,s1
800024f4:	02402825 	move	a1,s2
800024f8:	00000000 	nop
800024fc:	0c0008b1 	jal	800022c4 <fpn_div>
80002500:	00000000 	nop
80002504:	00401825 	move	v1,v0
80002508:	00d02023 	subu	a0,a2,s0
8000250c:	02402825 	move	a1,s2
80002510:	0c0008b1 	jal	800022c4 <fpn_div>
80002514:	00000000 	nop
80002518:	8fbf0000 	lw	ra,0(sp)
8000251c:	8fb00004 	lw	s0,4(sp)
80002520:	8fb10008 	lw	s1,8(sp)
80002524:	8fb2000c 	lw	s2,12(sp)
80002528:	27bd0010 	addiu	sp,sp,16
	...
80002534:	03e00008 	jr	ra
80002538:	00000000 	nop

8000253c <UTEST_gravity>:
8000253c:	3c04fff5 	lui	a0,0xfff5
80002540:	3484d375 	ori	a0,a0,0xd375
80002544:	3c050008 	lui	a1,0x8
80002548:	34a5d8ad 	ori	a1,a1,0xd8ad
8000254c:	24064106 	li	a2,16646
80002550:	3c07fffe 	lui	a3,0xfffe
80002554:	34e7f72c 	ori	a3,a3,0xf72c
	...
80002560:	08000929 	j	800024a4 <TB_gravity>
80002564:	00000000 	nop
80002568:	00000000 	nop

8000256c <TB_step>:
8000256c:	27bdffe0 	addiu	sp,sp,-32
80002570:	afbf0000 	sw	ra,0(sp)
80002574:	afb00004 	sw	s0,4(sp)
80002578:	afb10008 	sw	s1,8(sp)
8000257c:	afb2000c 	sw	s2,12(sp)
80002580:	afb30010 	sw	s3,16(sp)
80002584:	afb40014 	sw	s4,20(sp)
80002588:	afb50018 	sw	s5,24(sp)
8000258c:	afb6001c 	sw	s6,28(sp)
80002590:	00808025 	move	s0,a0
80002594:	3c048070 	lui	a0,0x8070
80002598:	8c840000 	lw	a0,0(a0)
8000259c:	3c058070 	lui	a1,0x8070
800025a0:	8ca50004 	lw	a1,4(a1)
800025a4:	3c068070 	lui	a2,0x8070
800025a8:	8cc60008 	lw	a2,8(a2)
800025ac:	3c078070 	lui	a3,0x8070
800025b0:	8ce7000c 	lw	a3,12(a3)
800025b4:	0c000929 	jal	800024a4 <TB_gravity>
800025b8:	00000000 	nop
800025bc:	00408825 	move	s1,v0
800025c0:	00609025 	move	s2,v1
800025c4:	00029823 	negu	s3,v0
800025c8:	0003a023 	negu	s4,v1
800025cc:	3c048070 	lui	a0,0x8070
800025d0:	8c840008 	lw	a0,8(a0)
800025d4:	3c058070 	lui	a1,0x8070
800025d8:	8ca5000c 	lw	a1,12(a1)
800025dc:	3c068070 	lui	a2,0x8070
800025e0:	8cc60010 	lw	a2,16(a2)
800025e4:	3c078070 	lui	a3,0x8070
800025e8:	8ce70014 	lw	a3,20(a3)
800025ec:	0c000929 	jal	800024a4 <TB_gravity>
800025f0:	00000000 	nop
800025f4:	02629821 	addu	s3,s3,v0
800025f8:	0283a021 	addu	s4,s4,v1
800025fc:	0002a823 	negu	s5,v0
80002600:	0003b023 	negu	s6,v1
80002604:	3c048070 	lui	a0,0x8070
80002608:	8c840010 	lw	a0,16(a0)
8000260c:	3c058070 	lui	a1,0x8070
80002610:	8ca50014 	lw	a1,20(a1)
80002614:	3c068070 	lui	a2,0x8070
80002618:	8cc60000 	lw	a2,0(a2)
8000261c:	3c078070 	lui	a3,0x8070
80002620:	8ce70004 	lw	a3,4(a3)
80002624:	0c000929 	jal	800024a4 <TB_gravity>
80002628:	00000000 	nop
8000262c:	02a2a821 	addu	s5,s5,v0
80002630:	02c3b021 	addu	s6,s6,v1
80002634:	02228823 	subu	s1,s1,v0
80002638:	02439023 	subu	s2,s2,v1
8000263c:	02202025 	move	a0,s1
80002640:	02002825 	move	a1,s0
80002644:	0c0008a9 	jal	800022a4 <fpn_mul>
80002648:	00000000 	nop
8000264c:	3c118070 	lui	s1,0x8070
80002650:	8e310020 	lw	s1,32(s1)
80002654:	02228821 	addu	s1,s1,v0
80002658:	3c018070 	lui	at,0x8070
8000265c:	ac310020 	sw	s1,32(at)
80002660:	02402025 	move	a0,s2
80002664:	02002825 	move	a1,s0
80002668:	0c0008a9 	jal	800022a4 <fpn_mul>
8000266c:	00000000 	nop
80002670:	3c128070 	lui	s2,0x8070
80002674:	8e520024 	lw	s2,36(s2)
80002678:	02429021 	addu	s2,s2,v0
8000267c:	3c018070 	lui	at,0x8070
80002680:	ac320024 	sw	s2,36(at)
80002684:	02602025 	move	a0,s3
80002688:	02002825 	move	a1,s0
8000268c:	0c0008a9 	jal	800022a4 <fpn_mul>
80002690:	00000000 	nop
80002694:	3c138070 	lui	s3,0x8070
80002698:	8e730028 	lw	s3,40(s3)
8000269c:	02629821 	addu	s3,s3,v0
800026a0:	3c018070 	lui	at,0x8070
800026a4:	ac330028 	sw	s3,40(at)
800026a8:	02802025 	move	a0,s4
800026ac:	02002825 	move	a1,s0
800026b0:	0c0008a9 	jal	800022a4 <fpn_mul>
800026b4:	00000000 	nop
800026b8:	3c148070 	lui	s4,0x8070
800026bc:	8e94002c 	lw	s4,44(s4)
800026c0:	0282a021 	addu	s4,s4,v0
800026c4:	3c018070 	lui	at,0x8070
800026c8:	ac34002c 	sw	s4,44(at)
800026cc:	02a02025 	move	a0,s5
800026d0:	02002825 	move	a1,s0
800026d4:	0c0008a9 	jal	800022a4 <fpn_mul>
800026d8:	00000000 	nop
800026dc:	3c158070 	lui	s5,0x8070
800026e0:	8eb50030 	lw	s5,48(s5)
800026e4:	02a2a821 	addu	s5,s5,v0
800026e8:	3c018070 	lui	at,0x8070
800026ec:	ac350030 	sw	s5,48(at)
800026f0:	02c02025 	move	a0,s6
800026f4:	02002825 	move	a1,s0
800026f8:	0c0008a9 	jal	800022a4 <fpn_mul>
800026fc:	00000000 	nop
80002700:	3c168070 	lui	s6,0x8070
80002704:	8ed60034 	lw	s6,52(s6)
80002708:	02c2b021 	addu	s6,s6,v0
8000270c:	3c018070 	lui	at,0x8070
80002710:	ac360034 	sw	s6,52(at)
80002714:	02202025 	move	a0,s1
80002718:	02002825 	move	a1,s0
8000271c:	0c0008a9 	jal	800022a4 <fpn_mul>
80002720:	00000000 	nop
80002724:	3c118070 	lui	s1,0x8070
80002728:	8e310000 	lw	s1,0(s1)
8000272c:	02228821 	addu	s1,s1,v0
80002730:	3c018070 	lui	at,0x8070
80002734:	ac310000 	sw	s1,0(at)
80002738:	02402025 	move	a0,s2
8000273c:	02002825 	move	a1,s0
80002740:	0c0008a9 	jal	800022a4 <fpn_mul>
80002744:	00000000 	nop
80002748:	3c128070 	lui	s2,0x8070
8000274c:	8e520004 	lw	s2,4(s2)
80002750:	02429021 	addu	s2,s2,v0
80002754:	3c018070 	lui	at,0x8070
80002758:	ac320004 	sw	s2,4(at)
8000275c:	02602025 	move	a0,s3
80002760:	02002825 	move	a1,s0
80002764:	0c0008a9 	jal	800022a4 <fpn_mul>
80002768:	00000000 	nop
8000276c:	3c138070 	lui	s3,0x8070
80002770:	8e730008 	lw	s3,8(s3)
80002774:	02629821 	addu	s3,s3,v0
80002778:	3c018070 	lui	at,0x8070
8000277c:	ac330008 	sw	s3,8(at)
80002780:	02802025 	move	a0,s4
80002784:	02002825 	move	a1,s0
80002788:	0c0008a9 	jal	800022a4 <fpn_mul>
8000278c:	00000000 	nop
80002790:	3c148070 	lui	s4,0x8070
80002794:	8e94000c 	lw	s4,12(s4)
80002798:	0282a021 	addu	s4,s4,v0
8000279c:	3c018070 	lui	at,0x8070
800027a0:	ac34000c 	sw	s4,12(at)
800027a4:	02a02025 	move	a0,s5
800027a8:	02002825 	move	a1,s0
800027ac:	0c0008a9 	jal	800022a4 <fpn_mul>
800027b0:	00000000 	nop
800027b4:	3c158070 	lui	s5,0x8070
800027b8:	8eb50010 	lw	s5,16(s5)
800027bc:	02a2a821 	addu	s5,s5,v0
800027c0:	3c018070 	lui	at,0x8070
800027c4:	ac350010 	sw	s5,16(at)
800027c8:	02c02025 	move	a0,s6
800027cc:	02002825 	move	a1,s0
800027d0:	0c0008a9 	jal	800022a4 <fpn_mul>
800027d4:	00000000 	nop
800027d8:	3c168070 	lui	s6,0x8070
800027dc:	8ed60014 	lw	s6,20(s6)
800027e0:	02c2b021 	addu	s6,s6,v0
800027e4:	3c018070 	lui	at,0x8070
800027e8:	ac360014 	sw	s6,20(at)
800027ec:	8fbf0000 	lw	ra,0(sp)
800027f0:	8fb00004 	lw	s0,4(sp)
800027f4:	8fb10008 	lw	s1,8(sp)
800027f8:	8fb2000c 	lw	s2,12(sp)
800027fc:	8fb30010 	lw	s3,16(sp)
80002800:	8fb40014 	lw	s4,20(sp)
80002804:	8fb50018 	lw	s5,24(sp)
80002808:	8fb6001c 	lw	s6,28(sp)
8000280c:	27bd0020 	addiu	sp,sp,32
80002810:	03e00008 	jr	ra
80002814:	00000000 	nop

80002818 <TB_main>:
80002818:	27bdfff8 	addiu	sp,sp,-8
8000281c:	afbf0000 	sw	ra,0(sp)
80002820:	afb00004 	sw	s0,4(sp)
80002824:	3408ddb3 	li	t0,0xddb3
80002828:	3c098070 	lui	t1,0x8070
8000282c:	ad280000 	sw	t0,0(t1)
80002830:	24088000 	li	t0,-32768
80002834:	3c098070 	lui	t1,0x8070
80002838:	35290004 	ori	t1,t1,0x4
8000283c:	ad280000 	sw	t0,0(t1)
80002840:	24080000 	li	t0,0
80002844:	3c098070 	lui	t1,0x8070
80002848:	35290008 	ori	t1,t1,0x8
8000284c:	ad280000 	sw	t0,0(t1)
80002850:	3c080001 	lui	t0,0x1
80002854:	3c098070 	lui	t1,0x8070
80002858:	3529000c 	ori	t1,t1,0xc
8000285c:	ad280000 	sw	t0,0(t1)
80002860:	3c08ffff 	lui	t0,0xffff
80002864:	3508224d 	ori	t0,t0,0x224d
80002868:	3c098070 	lui	t1,0x8070
8000286c:	35290010 	ori	t1,t1,0x10
80002870:	ad280000 	sw	t0,0(t1)
80002874:	24088000 	li	t0,-32768
80002878:	3c098070 	lui	t1,0x8070
8000287c:	35290014 	ori	t1,t1,0x14
80002880:	ad280000 	sw	t0,0(t1)
80002884:	2408d70b 	li	t0,-10485
80002888:	3c098070 	lui	t1,0x8070
8000288c:	35290020 	ori	t1,t1,0x20
80002890:	ad280000 	sw	t0,0(t1)
80002894:	2408eb86 	li	t0,-5242
80002898:	3c098070 	lui	t1,0x8070
8000289c:	35290024 	ori	t1,t1,0x24
800028a0:	ad280000 	sw	t0,0(t1)
800028a4:	2408b232 	li	t0,-19918
800028a8:	3c098070 	lui	t1,0x8070
800028ac:	35290028 	ori	t1,t1,0x28
800028b0:	ad280000 	sw	t0,0(t1)
800028b4:	3c08ffff 	lui	t0,0xffff
800028b8:	3508793c 	ori	t0,t0,0x793c
800028bc:	3c098070 	lui	t1,0x8070
800028c0:	3529002c 	ori	t1,t1,0x2c
800028c4:	ad280000 	sw	t0,0(t1)
800028c8:	2408b232 	li	t0,-19918
800028cc:	3c098070 	lui	t1,0x8070
800028d0:	35290030 	ori	t1,t1,0x30
800028d4:	ad280000 	sw	t0,0(t1)
800028d8:	340886c4 	li	t0,0x86c4
800028dc:	3c098070 	lui	t1,0x8070
800028e0:	35290034 	ori	t1,t1,0x34
800028e4:	ad280000 	sw	t0,0(t1)

800028e8 <.sim_loop>:
800028e8:	3c088070 	lui	t0,0x8070
800028ec:	8d090000 	lw	t1,0(t0)
800028f0:	000949c0 	sll	t1,t1,0x7
800028f4:	3c010190 	lui	at,0x190
800028f8:	01214821 	addu	t1,t1,at
800028fc:	00094c02 	srl	t1,t1,0x10
80002900:	3c088070 	lui	t0,0x8070
80002904:	35080004 	ori	t0,t0,0x4
80002908:	8d0a0000 	lw	t2,0(t0)
8000290c:	000a51c0 	sll	t2,t2,0x7
80002910:	3c01012c 	lui	at,0x12c
80002914:	01415021 	addu	t2,t2,at
80002918:	000a5402 	srl	t2,t2,0x10
8000291c:	01202025 	move	a0,t1
80002920:	01402825 	move	a1,t2
80002924:	24060003 	li	a2,3
80002928:	240700e0 	li	a3,224
8000292c:	0c000864 	jal	80002190 <CV_draw_square>
80002930:	00000000 	nop
80002934:	3c088070 	lui	t0,0x8070
80002938:	35080008 	ori	t0,t0,0x8
8000293c:	8d090000 	lw	t1,0(t0)
80002940:	000949c0 	sll	t1,t1,0x7
80002944:	3c010190 	lui	at,0x190
80002948:	01214821 	addu	t1,t1,at
8000294c:	00094c02 	srl	t1,t1,0x10
80002950:	3c088070 	lui	t0,0x8070
80002954:	3508000c 	ori	t0,t0,0xc
80002958:	8d0a0000 	lw	t2,0(t0)
8000295c:	000a51c0 	sll	t2,t2,0x7
80002960:	3c01012c 	lui	at,0x12c
80002964:	01415021 	addu	t2,t2,at
80002968:	000a5402 	srl	t2,t2,0x10
8000296c:	01202025 	move	a0,t1
80002970:	01402825 	move	a1,t2
80002974:	24060003 	li	a2,3
80002978:	2407001c 	li	a3,28
8000297c:	0c000864 	jal	80002190 <CV_draw_square>
80002980:	00000000 	nop
80002984:	3c088070 	lui	t0,0x8070
80002988:	35080010 	ori	t0,t0,0x10
8000298c:	8d090000 	lw	t1,0(t0)
80002990:	000949c0 	sll	t1,t1,0x7
80002994:	3c010190 	lui	at,0x190
80002998:	01214821 	addu	t1,t1,at
8000299c:	00094c02 	srl	t1,t1,0x10
800029a0:	3c088070 	lui	t0,0x8070
800029a4:	35080014 	ori	t0,t0,0x14
800029a8:	8d0a0000 	lw	t2,0(t0)
800029ac:	000a51c0 	sll	t2,t2,0x7
800029b0:	3c01012c 	lui	at,0x12c
800029b4:	01415021 	addu	t2,t2,at
800029b8:	000a5402 	srl	t2,t2,0x10
800029bc:	01202025 	move	a0,t1
800029c0:	01402825 	move	a1,t2
800029c4:	24060003 	li	a2,3
800029c8:	24070003 	li	a3,3
800029cc:	0c000864 	jal	80002190 <CV_draw_square>
800029d0:	00000000 	nop
800029d4:	0c000a81 	jal	80002a04 <.TB_WAIT>
800029d8:	00000000 	nop
800029dc:	24040041 	li	a0,65
800029e0:	0c00095b 	jal	8000256c <TB_step>
800029e4:	00000000 	nop
800029e8:	08000a3a 	j	800028e8 <.sim_loop>
800029ec:	00000000 	nop

800029f0 <.sim_end>:
800029f0:	8fbf0000 	lw	ra,0(sp)
800029f4:	8fb00004 	lw	s0,4(sp)
800029f8:	27bd0008 	addiu	sp,sp,8
800029fc:	03e00008 	jr	ra
80002a00:	00000000 	nop

80002a04 <.TB_WAIT>:
80002a04:	240807d0 	li	t0,2000

80002a08 <.wait_loop>:
80002a08:	2508ffff 	addiu	t0,t0,-1
80002a0c:	1d00fffe 	bgtz	t0,80002a08 <.wait_loop>
80002a10:	00000000 	nop
80002a14:	03e00008 	jr	ra
80002a18:	00000000 	nop

Disassembly of section .reginfo:

00000000 <.reginfo>:
   0:	a03f2ff0 	sb	ra,12272(at)
	...

Disassembly of section .gnu.attributes:

00000000 <.gnu.attributes>:
   0:	00000f41 	0xf41
   4:	756e6700 	jalx	5b99c00 <INITLOCATE-0x7a466400>
   8:	00070100 	sll	zero,a3,0x4
   c:	05040000 	0x5040000

Disassembly of section .debug_line:

00000000 <.debug_line>:
   0:	00000092 	0x92
   4:	00200002 	ror	zero,zero,0x0
   8:	01010000 	0x1010000
   c:	000d0efb 	0xd0efb
  10:	01010101 	0x1010101
  14:	01000000 	0x1000000
  18:	6b010000 	0x6b010000
  1c:	006e7265 	0x6e7265
  20:	2e766300 	sltiu	s6,s3,25344
  24:	00010053 	0x10053
  28:	05000000 	bltz	t0,2c <INITLOCATE-0x7fffffd4>
  2c:	00213802 	ror	a3,at,0x0
  30:	01120380 	0x1120380
  34:	4b834b4b 	c2	0x1834b4b
  38:	4b4b4b4c 	c2	0x14b4b4c
  3c:	4b4b4b4b 	c2	0x14b4b4b
  40:	4a0d034b 	c2	0xd034b
  44:	4b4c4b4b 	c2	0x14c4b4b
  48:	0e034b4b 	jal	80d2d2c <INITLOCATE-0x77f2d2d4>
  4c:	4b4b4b4a 	c2	0x14b4b4a
  50:	4b4b4b4b 	c2	0x14b4b4b
  54:	4b4b4b4c 	c2	0x14b4b4c
  58:	4c4c4f4b 	0x4c4c4f4b
  5c:	4c4b4b4b 	0x4c4b4b4b
  60:	4b4b4b4b 	c2	0x14b4b4b
  64:	504b4b4c 	beql	v0,t3,12d98 <INITLOCATE-0x7ffed268>
  68:	4b4b4b4b 	c2	0x14b4b4b
  6c:	4b4b4b4b 	c2	0x14b4b4b
  70:	4c4b4e4b 	0x4c4b4e4b
  74:	4b4b4b4b 	c2	0x14b4b4b
  78:	4b4b4b4c 	c2	0x14b4b4c
  7c:	4b4b4c4b 	c2	0x14b4c4b
  80:	4b4c4b4b 	c2	0x14c4b4b
  84:	4c4b4b4b 	0x4c4b4b4b
  88:	4e4b4b4b 	c3	0x4b4b4b
  8c:	4b4b4b4b 	c2	0x14b4b4b
  90:	0004024b 	0x4024b
  94:	008c0101 	0x8c0101
  98:	00020000 	sll	zero,v0,0x0
  9c:	00000022 	neg	zero,zero
  a0:	0efb0101 	jal	bec0404 <INITLOCATE-0x7413fbfc>
  a4:	0101000d 	break	0x101
  a8:	00000101 	0x101
  ac:	00000100 	sll	zero,zero,0x4
  b0:	72656b01 	0x72656b01
  b4:	7400006e 	jalx	1b8 <INITLOCATE-0x7ffffe48>
  b8:	2e747365 	sltiu	s4,s3,29541
  bc:	00010053 	0x10053
  c0:	05000000 	bltz	t0,c4 <INITLOCATE-0x7fffff3c>
  c4:	00200002 	ror	zero,zero,0x0
  c8:	01190380 	0x1190380
  cc:	4b514b4b 	c2	0x1514b4b
  d0:	4b4b4b4b 	c2	0x14b4b4b
  d4:	4b4c4f4b 	c2	0x14c4f4b
  d8:	4b4b4b4b 	c2	0x14b4b4b
  dc:	4b4c4b4b 	c2	0x14c4b4b
  e0:	4b4a1a03 	c2	0x14a1a03
  e4:	4b4b524b 	c2	0x14b524b
  e8:	4b4b4c4b 	c2	0x14b4c4b
  ec:	4b4b4b4b 	c2	0x14b4b4b
  f0:	09034b4b 	j	40d2d2c <INITLOCATE-0x7bf2d2d4>
  f4:	4b4b4b4a 	c2	0x14b4b4a
  f8:	4b4b4b4c 	c2	0x14b4b4c
  fc:	4b4b4b4b 	c2	0x14b4b4b
 100:	4b4b4b4b 	c2	0x14b4b4b
 104:	09034b4b 	j	40d2d2c <INITLOCATE-0x7bf2d2d4>
 108:	4b4b4c4a 	c2	0x14b4c4a
 10c:	4c4b4c4b 	0x4c4b4c4b
 110:	034b4b4b 	0x34b4b4b
 114:	4c4b4a09 	0x4c4b4a09
 118:	4b4b4b4b 	c2	0x14b4b4b
 11c:	4b4b4b4b 	c2	0x14b4b4b
 120:	0004024b 	0x4024b
 124:	00980101 	0x980101
 128:	00020000 	sll	zero,v0,0x0
 12c:	00000021 	move	zero,zero
 130:	0efb0101 	jal	bec0404 <INITLOCATE-0x7413fbfc>
 134:	0101000d 	break	0x101
 138:	00000101 	0x101
 13c:	00000100 	sll	zero,zero,0x4
 140:	72656b01 	0x72656b01
 144:	6600006e 	0x6600006e
 148:	532e6e70 	beql	t9,t6,1bb0c <INITLOCATE-0x7ffe44f4>
 14c:	00000100 	sll	zero,zero,0x4
 150:	02050000 	0x2050000
 154:	800022a4 	lb	zero,8868(zero)
 158:	4b011a03 	c2	0x1011a03
 15c:	4b4b4b4b 	c2	0x14b4b4b
 160:	0a034b4b 	j	80d2d2c <INITLOCATE-0x77f2d2d4>
 164:	4b4b4b4a 	c2	0x14b4b4a
 168:	4b4b4b4b 	c2	0x14b4b4b
 16c:	4b4b4b4d 	c2	0x14b4b4d
 170:	4b4b4d4b 	c2	0x14b4d4b
 174:	4e4b4b4b 	c3	0x4b4b4b
 178:	4b4b4b4b 	c2	0x14b4b4b
 17c:	4b4d4b4d 	c2	0x14d4b4d
 180:	4b4b4d4b 	c2	0x14b4d4b
 184:	4b4d4b4b 	c2	0x14d4b4b
 188:	4b4d4b4b 	c2	0x14d4b4b
 18c:	4d4b4b4b 	0x4d4b4b4b
 190:	4c4b834b 	0x4c4b834b
 194:	4b4a0a03 	c2	0x14a0a03
 198:	4b4b4b4b 	c2	0x14b4b4b
 19c:	4b4b4b4d 	c2	0x14b4b4d
 1a0:	4b4b4b4b 	c2	0x14b4b4b
 1a4:	4c4b4b4c 	0x4c4b4b4c
 1a8:	4b4b4b4b 	c2	0x14b4b4b
 1ac:	4b4b4c4b 	c2	0x14b4c4b
 1b0:	4b4b4b4b 	c2	0x14b4b4b
 1b4:	4b4b4d4b 	c2	0x14b4d4b
 1b8:	4b4b4b4b 	c2	0x14b4b4b
 1bc:	0004024b 	0x4024b
 1c0:	00450101 	0x450101
 1c4:	00020000 	sll	zero,v0,0x0
 1c8:	00000023 	negu	zero,zero
 1cc:	0efb0101 	jal	bec0404 <INITLOCATE-0x7413fbfc>
 1d0:	0101000d 	break	0x101
 1d4:	00000101 	0x101
 1d8:	00000100 	sll	zero,zero,0x4
 1dc:	72656b01 	0x72656b01
 1e0:	7300006e 	0x7300006e
 1e4:	64656863 	0x64656863
 1e8:	0100532e 	0x100532e
 1ec:	00000000 	nop
 1f0:	11900205 	beq	t4,s0,a08 <INITLOCATE-0x7ffff5f8>
 1f4:	0d038000 	jal	40e0000 <INITLOCATE-0x7bf20000>
 1f8:	4b4b4b01 	c2	0x14b4b01
 1fc:	4b4b4b4b 	c2	0x14b4b4b
 200:	4b4c4b4b 	c2	0x14c4b4b
 204:	04024b4b 	bltzl	zero,12f34 <INITLOCATE-0x7ffed0cc>
 208:	d2010100 	0xd2010100
 20c:	02000000 	0x2000000
 210:	00002200 	sll	a0,zero,0x8
 214:	fb010100 	sdc2	$1,256(t8)
 218:	01000d0e 	0x1000d0e
 21c:	00010101 	0x10101
 220:	00010000 	sll	zero,at,0x0
 224:	656b0100 	0x656b0100
 228:	00006e72 	tlt	zero,zero,0x1b9
 22c:	70617274 	q16sll	xr9,xr12,xr5,xr8,1
 230:	0100532e 	0x100532e
 234:	00000000 	nop
 238:	11c80205 	beq	t6,t0,a50 <INITLOCATE-0x7ffff5b0>
 23c:	1b038000 	0x1b038000
 240:	4b4b4b01 	c2	0x14b4b01
 244:	4b4b4b4b 	c2	0x14b4b4b
 248:	4b4e4b4b 	c2	0x14e4b4b
 24c:	4c4b4b4b 	0x4c4b4b4b
 250:	4b4b4c4b 	c2	0x14b4c4b
 254:	4b4b4b4b 	c2	0x14b4b4b
 258:	4b4b4b4b 	c2	0x14b4b4b
 25c:	4b4b4b4b 	c2	0x14b4b4b
 260:	4b4b4b4b 	c2	0x14b4b4b
 264:	4b4b4b4b 	c2	0x14b4b4b
 268:	4b4b4b4b 	c2	0x14b4b4b
 26c:	4b4b4b4b 	c2	0x14b4b4b
 270:	4b4b4b4b 	c2	0x14b4b4b
 274:	4b4b4d4b 	c2	0x14b4d4b
 278:	4b4b4b4b 	c2	0x14b4b4b
 27c:	4c4b4b4c 	0x4c4b4b4c
 280:	4b4e4b4b 	c2	0x14e4b4b
 284:	4b4b4b4e 	c2	0x14b4b4e
 288:	4b4b4b4b 	c2	0x14b4b4b
 28c:	4b4b4b4b 	c2	0x14b4b4b
 290:	4b4b4b4b 	c2	0x14b4b4b
 294:	4b4b4b4b 	c2	0x14b4b4b
 298:	4b4b4b4b 	c2	0x14b4b4b
 29c:	4b4b4b4b 	c2	0x14b4b4b
 2a0:	4b4b4b4b 	c2	0x14b4b4b
 2a4:	4c4b4b4b 	0x4c4b4b4b
 2a8:	4b4f4b4b 	c2	0x14f4b4b
 2ac:	4b4b4b4b 	c2	0x14b4b4b
 2b0:	4d4b4b4b 	0x4d4b4b4b
 2b4:	4b4b4b4b 	c2	0x14b4b4b
 2b8:	4b4b4b4b 	c2	0x14b4b4b
 2bc:	4b4b4e4b 	c2	0x14b4e4b
 2c0:	4b4b4b4b 	c2	0x14b4b4b
 2c4:	4b4d4b4b 	c2	0x14d4b4b
 2c8:	4d4b4c4b 	0x4d4b4c4b
 2cc:	4b4b4d4b 	c2	0x14b4d4b
 2d0:	4b4b4d4b 	c2	0x14b4d4b
 2d4:	4b4b4b4b 	c2	0x14b4b4b
 2d8:	4b4b4b4b 	c2	0x14b4b4b
 2dc:	01000402 	0x1000402
 2e0:	0000fa01 	0xfa01
 2e4:	23000200 	addi	zero,t8,512
 2e8:	01000000 	0x1000000
 2ec:	0d0efb01 	jal	43bec04 <INITLOCATE-0x7bc413fc>
 2f0:	01010100 	0x1010100
 2f4:	00000001 	movf	zero,zero,$fcc0
 2f8:	01000001 	movf	zero,t0,$fcc0
 2fc:	6e72656b 	0x6e72656b
 300:	68730000 	0x68730000
 304:	2e6c6c65 	sltiu	t4,s3,27749
 308:	00010053 	0x10053
 30c:	05000000 	bltz	t0,310 <INITLOCATE-0x7ffffcf0>
 310:	00143802 	srl	a3,s4,0x0
 314:	011b0380 	0x11b0380
 318:	4b4b4c4b 	c2	0x14b4c4b
 31c:	4b4b4b4b 	c2	0x14b4b4b
 320:	4b4b4b4b 	c2	0x14b4b4b
 324:	4b4b4b4b 	c2	0x14b4b4b
 328:	4c4b4b4c 	0x4c4b4b4c
 32c:	4b4b4d4b 	c2	0x14b4d4b
 330:	11034b4b 	beq	t0,v1,13060 <INITLOCATE-0x7ffecfa0>
 334:	4b4b4b4a 	c2	0x14b4b4a
 338:	4b4c4b4d 	c2	0x14c4b4d
 33c:	4b4b4b4b 	c2	0x14b4b4b
 340:	4b4b4c4b 	c2	0x14b4c4b
 344:	4b4d4b4c 	c2	0x14d4b4c
 348:	4c4b4c4b 	0x4c4b4c4b
 34c:	4b4b4b4b 	c2	0x14b4b4b
 350:	4b4c4b4b 	c2	0x14c4b4b
 354:	4d4b4b4b 	0x4d4b4b4b
 358:	4b4c4b4b 	c2	0x14c4b4b
 35c:	4b4b4b4b 	c2	0x14b4b4b
 360:	4b4b4b4d 	c2	0x14b4b4d
 364:	4c4b4b4b 	0x4c4b4b4b
 368:	4b4b4b4b 	c2	0x14b4b4b
 36c:	4c4b4b4d 	0x4c4b4b4d
 370:	4b4b4b4b 	c2	0x14b4b4b
 374:	4b4c4b4b 	c2	0x14c4b4b
 378:	4b4b4b4b 	c2	0x14b4b4b
 37c:	4b4b4c4b 	c2	0x14b4c4b
 380:	834e4b4b 	lb	t6,19275(k0)
 384:	4c4b4c4b 	0x4c4b4c4b
 388:	4c4b4e4b 	0x4c4b4e4b
 38c:	4f4d4b4b 	c3	0x14d4b4b
 390:	4c4b4b4b 	0x4c4b4b4b
 394:	4b4b4b4b 	c2	0x14b4b4b
 398:	4b4b4b4b 	c2	0x14b4b4b
 39c:	4b4b4b4b 	c2	0x14b4b4b
 3a0:	4b4b4b4b 	c2	0x14b4b4b
 3a4:	4b4b4b4b 	c2	0x14b4b4b
 3a8:	4b4b4b4b 	c2	0x14b4b4b
 3ac:	4c4b4b4d 	0x4c4b4b4d
 3b0:	504c4b4b 	beql	v0,t4,130e0 <INITLOCATE-0x7ffecf20>
 3b4:	4b4c4b4c 	c2	0x14c4b4c
 3b8:	4b4b4b4b 	c2	0x14b4b4b
 3bc:	4b4b4b4b 	c2	0x14b4b4b
 3c0:	4b4b4b4b 	c2	0x14b4b4b
 3c4:	4b4b4b4b 	c2	0x14b4b4b
 3c8:	4b4b4b4b 	c2	0x14b4b4b
 3cc:	4d4b4b4b 	0x4d4b4b4b
 3d0:	4b4c4b4b 	c2	0x14c4b4b
 3d4:	4b4c4b4b 	c2	0x14c4b4b
 3d8:	04024b4d 	bltzl	zero,13110 <INITLOCATE-0x7ffecef0>
 3dc:	88010100 	lwl	at,256(zero)
 3e0:	02000001 	movf	zero,s0,$fcc0
 3e4:	00002700 	sll	a0,zero,0x1c
 3e8:	fb010100 	sdc2	$1,256(t8)
 3ec:	01000d0e 	0x1000d0e
 3f0:	00010101 	0x10101
 3f4:	00010000 	sll	zero,at,0x0
 3f8:	656b0100 	0x656b0100
 3fc:	00006e72 	tlt	zero,zero,0x1b9
 400:	65726874 	0x65726874
 404:	646f6265 	0x646f6265
 408:	00532e79 	0x532e79
 40c:	00000001 	movf	zero,zero,$fcc0
 410:	24020500 	li	v0,1280
 414:	03800024 	and	zero,gp,zero
 418:	4b4b0117 	c2	0x14b0117
 41c:	4b4b4b4b 	c2	0x14b4b4b
 420:	4b4b4b4b 	c2	0x14b4b4b
 424:	4b4b4b4b 	c2	0x14b4b4b
 428:	4b4c4b4b 	c2	0x14c4b4b
 42c:	4b4b4b4b 	c2	0x14b4b4b
 430:	4b834e4b 	c2	0x1834e4b
 434:	034b4b83 	0x34b4b83
 438:	4b4b4a0e 	c2	0x14b4a0e
 43c:	1f034b4b 	0x1f034b4b
 440:	4c4b4b4a 	0x4c4b4b4a
 444:	4a0a034c 	c2	0xa034c
 448:	034b4b4b 	0x34b4b4b
 44c:	4b4b4a0b 	c2	0x14b4a0b
 450:	0c034c4b 	jal	d312c <INITLOCATE-0x7ff2ced4>
 454:	4b504b4a 	c2	0x1504b4a
 458:	0b034c4b 	j	c0d312c <INITLOCATE-0x73f2ced4>
 45c:	4b4b4b4a 	c2	0x14b4b4a
 460:	4b4a0b03 	c2	0x14a0b03
 464:	4b4b4b4b 	c2	0x14b4b4b
 468:	4e4b4b4b 	c3	0x4b4b4b
 46c:	834b8383 	lb	t3,-31869(k0)
 470:	4b4b4c4b 	c2	0x14b4c4b
 474:	4b4a1003 	c2	0x14a1003
 478:	4b4b4b4b 	c2	0x14b4b4b
 47c:	4c4b4b4b 	0x4c4b4b4b
 480:	8383834e 	lb	v1,-31922(gp)
 484:	4b4d4b83 	c2	0x14d4b83
 488:	834c4b4c 	lb	t4,19276(k0)
 48c:	4b838383 	c2	0x1838383
 490:	4b4c4b4d 	c2	0x14c4b4d
 494:	8383834c 	lb	v1,-31924(gp)
 498:	4b4d4b83 	c2	0x14d4b83
 49c:	4b4f4b4c 	c2	0x14f4b4c
 4a0:	834b4b4b 	lb	t3,19275(k0)
 4a4:	4b4b844b 	c2	0x14b844b
 4a8:	4b834b4b 	c2	0x1834b4b
 4ac:	4b4b4b85 	c2	0x14b4b85
 4b0:	844b834b 	lh	t3,-31925(v0)
 4b4:	4b4b4b4b 	c2	0x14b4b4b
 4b8:	4b854b83 	c2	0x1854b83
 4bc:	834b4b4b 	lb	t3,19275(k0)
 4c0:	4b4b844b 	c2	0x14b844b
 4c4:	4b834b4b 	c2	0x1834b4b
 4c8:	4b4b4b87 	c2	0x14b4b87
 4cc:	844b834b 	lh	t3,-31925(v0)
 4d0:	4b4b4b4b 	c2	0x14b4b4b
 4d4:	4b854b83 	c2	0x1854b83
 4d8:	834b4b4b 	lb	t3,19275(k0)
 4dc:	4b4b844b 	c2	0x14b844b
 4e0:	4b834b4b 	c2	0x1834b4b
 4e4:	4b4b4b85 	c2	0x14b4b85
 4e8:	844b834b 	lh	t3,-31925(v0)
 4ec:	4b4b4b4b 	c2	0x14b4b4b
 4f0:	4b884b83 	c2	0x1884b83
 4f4:	4b4b4b4b 	c2	0x14b4b4b
 4f8:	4b4b4b4b 	c2	0x14b4b4b
 4fc:	4b4b4e4b 	c2	0x14b4e4b
 500:	4c4b4b4c 	0x4c4b4b4c
 504:	4b4c834b 	c2	0x14c834b
 508:	834b4c83 	lb	t3,19587(k0)
 50c:	4c83834c 	0x4c83834c
 510:	4b4c834b 	c2	0x14c834b
 514:	834b4c83 	lb	t3,19587(k0)
 518:	4c834b4c 	0x4c834b4c
 51c:	4b4c8383 	c2	0x14c8383
 520:	834b4c83 	lb	t3,19587(k0)
 524:	4b4b4b50 	c2	0x14b4b50
 528:	4b834c83 	c2	0x1834c83
 52c:	4b4c834b 	c2	0x14c834b
 530:	4b4b4b4b 	c2	0x14b4b4b
 534:	4b4b834d 	c2	0x14b834d
 538:	4b834c83 	c2	0x1834c83
 53c:	4b4c834b 	c2	0x14c834b
 540:	4b4b4b4b 	c2	0x14b4b4b
 544:	4b4b834d 	c2	0x14b834d
 548:	4b834c83 	c2	0x1834c83
 54c:	4b4c834b 	c2	0x14c834b
 550:	4b4b4b4b 	c2	0x14b4b4b
 554:	4b4c4b4c 	c2	0x14c4b4c
 558:	4d4b4c4b 	0x4d4b4c4b
 55c:	4b4b4b4b 	c2	0x14b4b4b
 560:	4b4b4c4e 	c2	0x14b4c4e
 564:	04024b4b 	bltzl	zero,13294 <INITLOCATE-0x7ffecd6c>
 568:	aa010100 	swl	at,256(s0)
 56c:	02000000 	0x2000000
 570:	00002200 	sll	a0,zero,0x8
 574:	fb010100 	sdc2	$1,256(t8)
 578:	01000d0e 	0x1000d0e
 57c:	00010101 	0x10101
 580:	00010000 	sll	zero,at,0x0
 584:	656b0100 	0x656b0100
 588:	00006e72 	tlt	zero,zero,0x1b9
 58c:	74696e69 	jalx	1a5b9a4 <INITLOCATE-0x7e5a465c>
 590:	0100532e 	0x100532e
 594:	00000000 	nop
 598:	17800205 	bnez	gp,db0 <INITLOCATE-0x7ffff250>
 59c:	32038000 	andi	v1,s0,0x8000
 5a0:	4b4b4b01 	c2	0x14b4b01
 5a4:	4b4b4b4c 	c2	0x14b4b4c
 5a8:	4b4e4b4b 	c2	0x14e4b4b
 5ac:	4b4b4d4b 	c2	0x14b4d4b
 5b0:	4b4b4b4c 	c2	0x14b4b4c
 5b4:	4b4b4b4b 	c2	0x14b4b4b
 5b8:	4b4b4b4b 	c2	0x14b4b4b
 5bc:	4b4b4b4c 	c2	0x14b4b4c
 5c0:	4b4b4b4b 	c2	0x14b4b4b
 5c4:	4a14034b 	c2	0x14034b
 5c8:	4b4f4b4b 	c2	0x14f4b4b
 5cc:	4b4c4e4b 	c2	0x14c4e4b
 5d0:	4b4b4b4b 	c2	0x14b4b4b
 5d4:	4b4c4b4b 	c2	0x14c4b4b
 5d8:	4b4b4b4b 	c2	0x14b4b4b
 5dc:	4c4c4b4b 	0x4c4c4b4b
 5e0:	4b4b4b4c 	c2	0x14b4b4c
 5e4:	4b4b4b4b 	c2	0x14b4b4b
 5e8:	4b4b4c4b 	c2	0x14b4c4b
 5ec:	eb034b4b 	swc2	$3,19275(t8)
 5f0:	4b4b4a00 	c2	0x14b4a00
 5f4:	4b4b4b4b 	c2	0x14b4b4b
 5f8:	4b4f4b4d 	c2	0x14f4b4d
 5fc:	4b4b4c4b 	c2	0x14b4c4b
 600:	4c4b4b4b 	0x4c4b4b4b
 604:	4b4c4b4b 	c2	0x14c4b4b
 608:	4b4b4b4f 	c2	0x14b4b4f
 60c:	4b4b4b4b 	c2	0x14b4b4b
 610:	4b4b4b4b 	c2	0x14b4b4b
 614:	01000402 	0x1000402
 618:	00005b01 	0x5b01
 61c:	22000200 	addi	zero,s0,512
 620:	01000000 	0x1000000
 624:	0d0efb01 	jal	43bec04 <INITLOCATE-0x7bc413fc>
 628:	01010100 	0x1010100
 62c:	00000001 	movf	zero,zero,$fcc0
 630:	01000001 	movf	zero,t0,$fcc0
 634:	6e72656b 	0x6e72656b
 638:	76650000 	jalx	9940000 <INITLOCATE-0x766c0000>
 63c:	532e6365 	beql	t9,t6,193d4 <INITLOCATE-0x7ffe6c2c>
 640:	00000100 	sll	zero,zero,0x4
 644:	02050000 	0x2050000
 648:	80000000 	lb	zero,0(zero)
 64c:	4b010b03 	c2	0x1010b03
 650:	04024b4b 	bltzl	zero,13380 <INITLOCATE-0x7ffecc80>
 654:	00010100 	sll	zero,at,0x4
 658:	11800205 	beqz	t4,e70 <INITLOCATE-0x7ffff190>
 65c:	12038000 	beq	s0,v1,fffe0660 <SerialStat+0x402e0264>
 660:	4b4b4b01 	c2	0x14b4b01
 664:	01000402 	0x1000402
 668:	02050001 	movt	zero,s0,$fcc1
 66c:	80001000 	lb	zero,4096(zero)
 670:	02012303 	0x2012303
 674:	01010004 	sllv	zero,at,t0
 678:	00000094 	0x94
 67c:	00230002 	ror	zero,v1,0x0
 680:	01010000 	0x1010000
 684:	000d0efb 	0xd0efb
 688:	01010101 	0x1010101
 68c:	01000000 	0x1000000
 690:	6b010000 	0x6b010000
 694:	006e7265 	0x6e7265
 698:	69747500 	0x69747500
 69c:	532e736c 	beql	t9,t6,1d450 <INITLOCATE-0x7ffe2bb0>
 6a0:	00000100 	sll	zero,zero,0x4
 6a4:	02050000 	0x2050000
 6a8:	8000193c 	lb	zero,6460(zero)
 6ac:	4b010f03 	c2	0x1010f03
 6b0:	4b4c4e4b 	c2	0x14c4e4b
 6b4:	4b4b4b4b 	c2	0x14b4b4b
 6b8:	4b4b4b4c 	c2	0x14b4b4c
 6bc:	4c4a0a03 	0x4c4a0a03
 6c0:	4c4b4b4b 	0x4c4b4b4b
 6c4:	4c4b4c4b 	0x4c4b4c4b
 6c8:	034b4b4b 	0x34b4b4b
 6cc:	4b4b4a18 	c2	0x14b4a18
 6d0:	4c4b4b4b 	0x4c4b4b4b
 6d4:	4b4b4b4b 	c2	0x14b4b4b
 6d8:	4b4b4b4b 	c2	0x14b4b4b
 6dc:	4c4b4b4b 	0x4c4b4b4b
 6e0:	4b4b4b4b 	c2	0x14b4b4b
 6e4:	4b4b4b4b 	c2	0x14b4b4b
 6e8:	4b4c4b4b 	c2	0x14c4b4b
 6ec:	4b4b4b4b 	c2	0x14b4b4b
 6f0:	4b4d4b4b 	c2	0x14d4b4b
 6f4:	4b4b4b4b 	c2	0x14b4b4b
 6f8:	4b4b4b4c 	c2	0x14b4b4c
 6fc:	4b4b4b4b 	c2	0x14b4b4b
 700:	4c4b4b4b 	0x4c4b4b4b
 704:	4b4b4b4b 	c2	0x14b4b4b
 708:	024b4b4b 	0x24b4b4b
 70c:	01010004 	sllv	zero,at,t0

Disassembly of section .debug_info:

00000000 <.debug_info>:
   0:	0000005b 	0x5b
   4:	00000002 	srl	zero,zero,0x0
   8:	01040000 	0x1040000
   c:	00000000 	nop
  10:	80002138 	lb	zero,8504(zero)
  14:	800022a4 	lb	zero,8868(zero)
  18:	6e72656b 	0x6e72656b
  1c:	2e76632f 	sltiu	s6,s3,25391
  20:	3a430053 	xori	v1,s2,0x53
  24:	6573555c 	0x6573555c
  28:	615c7372 	0x615c7372
  2c:	6e696d64 	0x6e696d64
  30:	5550435c 	bnel	t2,s0,10da4 <INITLOCATE-0x7ffef25c>
  34:	635c7265 	0x635c7265
  38:	3931646f 	xori	s1,t1,0x646f
  3c:	31707267 	andi	s0,t3,0x7267
  40:	65645c36 	0x65645c36
  44:	6b5c6f6d 	0x6b5c6f6d
  48:	656e7265 	0x656e7265
  4c:	4e47006c 	c3	0x47006c
  50:	53412055 	beql	k0,at,81a8 <INITLOCATE-0x7fff7e58>
  54:	322e3220 	andi	t6,s1,0x3220
  58:	30392e34 	andi	t9,at,0x2e34
  5c:	5d800100 	bgtzl	t4,460 <INITLOCATE-0x7ffffba0>
  60:	02000000 	0x2000000
  64:	00001400 	sll	v0,zero,0x10
  68:	96010400 	lhu	at,1024(s0)
  6c:	00000000 	nop
  70:	38800020 	xori	zero,a0,0x20
  74:	6b800021 	0x6b800021
  78:	2f6e7265 	sltiu	t6,k1,29285
  7c:	74736574 	jalx	1cd95d0 <INITLOCATE-0x7e326a30>
  80:	4300532e 	c0	0x100532e
  84:	73555c3a 	0x73555c3a
  88:	5c737265 	0x5c737265
  8c:	696d6461 	0x696d6461
  90:	50435c6e 	beql	v0,v1,1724c <INITLOCATE-0x7ffe8db4>
  94:	5c726555 	0x5c726555
  98:	31646f63 	andi	a0,t3,0x6f63
  9c:	70726739 	0x70726739
  a0:	645c3631 	0x645c3631
  a4:	5c6f6d65 	0x5c6f6d65
  a8:	6e72656b 	0x6e72656b
  ac:	47006c65 	bz.b	$w0,1b244 <INITLOCATE-0x7ffe4dbc>
  b0:	4120554e 	0x4120554e
  b4:	2e322053 	sltiu	s2,s1,8275
  b8:	392e3432 	xori	t6,t1,0x3432
  bc:	80010030 	lb	at,48(zero)
  c0:	0000005c 	0x5c
  c4:	00280002 	ror	zero,t0,0x0
  c8:	01040000 	0x1040000
  cc:	00000126 	0x126
  d0:	800022a4 	lb	zero,8868(zero)
  d4:	80002424 	lb	zero,9252(zero)
  d8:	6e72656b 	0x6e72656b
  dc:	6e70662f 	0x6e70662f
  e0:	4300532e 	c0	0x100532e
  e4:	73555c3a 	0x73555c3a
  e8:	5c737265 	0x5c737265
  ec:	696d6461 	0x696d6461
  f0:	50435c6e 	beql	v0,v1,172ac <INITLOCATE-0x7ffe8d54>
  f4:	5c726555 	0x5c726555
  f8:	31646f63 	andi	a0,t3,0x6f63
  fc:	70726739 	0x70726739
 100:	645c3631 	0x645c3631
 104:	5c6f6d65 	0x5c6f6d65
 108:	6e72656b 	0x6e72656b
 10c:	47006c65 	bz.b	$w0,1b2a4 <INITLOCATE-0x7ffe4d5c>
 110:	4120554e 	0x4120554e
 114:	2e322053 	sltiu	s2,s1,8275
 118:	392e3432 	xori	t6,t1,0x3432
 11c:	80010030 	lb	at,48(zero)
 120:	0000005e 	0x5e
 124:	003c0002 	ror	zero,gp,0x0
 128:	01040000 	0x1040000
 12c:	000001c2 	srl	zero,zero,0x7
 130:	80001190 	lb	zero,4496(zero)
 134:	800011c8 	lb	zero,4552(zero)
 138:	6e72656b 	0x6e72656b
 13c:	6863732f 	0x6863732f
 140:	532e6465 	beql	t9,t6,192d8 <INITLOCATE-0x7ffe6d28>
 144:	5c3a4300 	0x5c3a4300
 148:	72657355 	s32sdi	xr13,s3,1392
 14c:	64615c73 	0x64615c73
 150:	5c6e696d 	0x5c6e696d
 154:	65555043 	0x65555043
 158:	6f635c72 	0x6f635c72
 15c:	67393164 	0x67393164
 160:	36317072 	ori	s1,s1,0x7072
 164:	6d65645c 	0x6d65645c
 168:	656b5c6f 	0x656b5c6f
 16c:	6c656e72 	0x6c656e72
 170:	554e4700 	bnel	t2,t6,11d74 <INITLOCATE-0x7ffee28c>
 174:	20534120 	addi	s3,v0,16672
 178:	34322e32 	ori	s2,at,0x2e32
 17c:	0030392e 	0x30392e
 180:	005d8001 	movt	s0,v0,$fcc7
 184:	00020000 	sll	zero,v0,0x0
 188:	00000050 	0x50
 18c:	020b0104 	0x20b0104
 190:	11c80000 	beq	t6,t0,194 <INITLOCATE-0x7ffffe6c>
 194:	14388000 	bne	at,t8,fffe0198 <SerialStat+0x402dfd9c>
 198:	656b8000 	0x656b8000
 19c:	742f6e72 	jalx	bdb9c8 <INITLOCATE-0x7f424638>
 1a0:	2e706172 	sltiu	s0,s3,24946
 1a4:	3a430053 	xori	v1,s2,0x53
 1a8:	6573555c 	0x6573555c
 1ac:	615c7372 	0x615c7372
 1b0:	6e696d64 	0x6e696d64
 1b4:	5550435c 	bnel	t2,s0,10f28 <INITLOCATE-0x7ffef0d8>
 1b8:	635c7265 	0x635c7265
 1bc:	3931646f 	xori	s1,t1,0x646f
 1c0:	31707267 	andi	s0,t3,0x7267
 1c4:	65645c36 	0x65645c36
 1c8:	6b5c6f6d 	0x6b5c6f6d
 1cc:	656e7265 	0x656e7265
 1d0:	4e47006c 	c3	0x47006c
 1d4:	53412055 	beql	k0,at,832c <INITLOCATE-0x7fff7cd4>
 1d8:	322e3220 	andi	t6,s1,0x3220
 1dc:	30392e34 	andi	t9,at,0x2e34
 1e0:	5e800100 	bgtzl	s4,5e4 <INITLOCATE-0x7ffffa1c>
 1e4:	02000000 	0x2000000
 1e8:	00006400 	sll	t4,zero,0x10
 1ec:	e1010400 	sc	at,1024(t0)
 1f0:	38000002 	xori	zero,zero,0x2
 1f4:	40800014 	0x40800014
 1f8:	6b800017 	0x6b800017
 1fc:	2f6e7265 	sltiu	t6,k1,29285
 200:	6c656873 	0x6c656873
 204:	00532e6c 	0x532e6c
 208:	555c3a43 	bnel	t2,gp,eb18 <INITLOCATE-0x7fff14e8>
 20c:	73726573 	d32sar	xr5,xr9,xr9,xr12,13
 210:	6d64615c 	0x6d64615c
 214:	435c6e69 	c0	0x15c6e69
 218:	72655550 	s32ldd	xr5,s3,1364
 21c:	646f635c 	0x646f635c
 220:	72673931 	d32slr	xr4,xr14,xr12,xr9,9
 224:	5c363170 	0x5c363170
 228:	6f6d6564 	0x6f6d6564
 22c:	72656b5c 	udi12	s3,a1,t5,0xd
 230:	006c656e 	0x6c656e
 234:	20554e47 	addi	s5,v0,20039
 238:	32205341 	andi	zero,s1,0x5341
 23c:	2e34322e 	sltiu	s4,s1,12846
 240:	01003039 	0x1003039
 244:	00006280 	sll	t4,zero,0xa
 248:	78000200 	andi.b	$w8,$w0,0x0
 24c:	04000000 	bltz	zero,250 <INITLOCATE-0x7ffffdb0>
 250:	0003df01 	0x3df01
 254:	00242400 	0x242400
 258:	002a1c80 	0x2a1c80
 25c:	72656b80 	0x72656b80
 260:	68742f6e 	0x68742f6e
 264:	62656572 	0x62656572
 268:	2e79646f 	sltiu	t9,s3,25711
 26c:	3a430053 	xori	v1,s2,0x53
 270:	6573555c 	0x6573555c
 274:	615c7372 	0x615c7372
 278:	6e696d64 	0x6e696d64
 27c:	5550435c 	bnel	t2,s0,10ff0 <INITLOCATE-0x7ffef010>
 280:	635c7265 	0x635c7265
 284:	3931646f 	xori	s1,t1,0x646f
 288:	31707267 	andi	s0,t3,0x7267
 28c:	65645c36 	0x65645c36
 290:	6b5c6f6d 	0x6b5c6f6d
 294:	656e7265 	0x656e7265
 298:	4e47006c 	c3	0x47006c
 29c:	53412055 	beql	k0,at,83f4 <INITLOCATE-0x7fff7c0c>
 2a0:	322e3220 	andi	t6,s1,0x3220
 2a4:	30392e34 	andi	t9,at,0x2e34
 2a8:	5d800100 	bgtzl	t4,6ac <INITLOCATE-0x7ffff954>
 2ac:	02000000 	0x2000000
 2b0:	00008c00 	sll	s1,zero,0x10
 2b4:	6b010400 	0x6b010400
 2b8:	40000005 	mfc0	zero,$0,5
 2bc:	3c800017 	0x3c800017
 2c0:	6b800019 	0x6b800019
 2c4:	2f6e7265 	sltiu	t6,k1,29285
 2c8:	74696e69 	jalx	1a5b9a4 <INITLOCATE-0x7e5a465c>
 2cc:	4300532e 	c0	0x100532e
 2d0:	73555c3a 	0x73555c3a
 2d4:	5c737265 	0x5c737265
 2d8:	696d6461 	0x696d6461
 2dc:	50435c6e 	beql	v0,v1,17498 <INITLOCATE-0x7ffe8b68>
 2e0:	5c726555 	0x5c726555
 2e4:	31646f63 	andi	a0,t3,0x6f63
 2e8:	70726739 	0x70726739
 2ec:	645c3631 	0x645c3631
 2f0:	5c6f6d65 	0x5c6f6d65
 2f4:	6e72656b 	0x6e72656b
 2f8:	47006c65 	bz.b	$w0,1b490 <INITLOCATE-0x7ffe4b70>
 2fc:	4120554e 	0x4120554e
 300:	2e322053 	sltiu	s2,s1,8275
 304:	392e3432 	xori	t6,t1,0x3432
 308:	80010030 	lb	at,48(zero)
 30c:	00000059 	0x59
 310:	00a00002 	0xa00002
 314:	01040000 	0x1040000
 318:	00000619 	0x619
 31c:	00000000 	nop
 320:	6e72656b 	0x6e72656b
 324:	6576652f 	0x6576652f
 328:	00532e63 	0x532e63
 32c:	555c3a43 	bnel	t2,gp,ec3c <INITLOCATE-0x7fff13c4>
 330:	73726573 	d32sar	xr5,xr9,xr9,xr12,13
 334:	6d64615c 	0x6d64615c
 338:	435c6e69 	c0	0x15c6e69
 33c:	72655550 	s32ldd	xr5,s3,1364
 340:	646f635c 	0x646f635c
 344:	72673931 	d32slr	xr4,xr14,xr12,xr9,9
 348:	5c363170 	0x5c363170
 34c:	6f6d6564 	0x6f6d6564
 350:	72656b5c 	udi12	s3,a1,t5,0xd
 354:	006c656e 	0x6c656e
 358:	20554e47 	addi	s5,v0,20039
 35c:	32205341 	andi	zero,s1,0x5341
 360:	2e34322e 	sltiu	s4,s1,12846
 364:	01003039 	0x1003039
 368:	00005e80 	sll	t3,zero,0x1a
 36c:	b2000200 	0xb2000200
 370:	04000000 	bltz	zero,374 <INITLOCATE-0x7ffffc8c>
 374:	00067801 	0x67801
 378:	00193c00 	sll	a3,t9,0x10
 37c:	001aa080 	sll	s4,k0,0x2
 380:	72656b80 	0x72656b80
 384:	74752f6e 	jalx	1d4bdb8 <INITLOCATE-0x7e2b4248>
 388:	2e736c69 	sltiu	s3,s3,27753
 38c:	3a430053 	xori	v1,s2,0x53
 390:	6573555c 	0x6573555c
 394:	615c7372 	0x615c7372
 398:	6e696d64 	0x6e696d64
 39c:	5550435c 	bnel	t2,s0,11110 <INITLOCATE-0x7ffeeef0>
 3a0:	635c7265 	0x635c7265
 3a4:	3931646f 	xori	s1,t1,0x646f
 3a8:	31707267 	andi	s0,t3,0x7267
 3ac:	65645c36 	0x65645c36
 3b0:	6b5c6f6d 	0x6b5c6f6d
 3b4:	656e7265 	0x656e7265
 3b8:	4e47006c 	c3	0x47006c
 3bc:	53412055 	beql	k0,at,8514 <INITLOCATE-0x7fff7aec>
 3c0:	322e3220 	andi	t6,s1,0x3220
 3c4:	30392e34 	andi	t9,at,0x2e34
 3c8:	Address 0x00000000000003c8 is out of bounds.


Disassembly of section .debug_abbrev:

00000000 <.debug_abbrev>:
   0:	10001101 	b	4408 <INITLOCATE-0x7fffbbf8>
   4:	12011106 	beq	s0,at,4420 <INITLOCATE-0x7fffbbe0>
   8:	1b080301 	0x1b080301
   c:	13082508 	beq	t8,t0,9430 <INITLOCATE-0x7fff6bd0>
  10:	00000005 	lsa	zero,zero,zero,0x1
  14:	10001101 	b	441c <INITLOCATE-0x7fffbbe4>
  18:	12011106 	beq	s0,at,4434 <INITLOCATE-0x7fffbbcc>
  1c:	1b080301 	0x1b080301
  20:	13082508 	beq	t8,t0,9444 <INITLOCATE-0x7fff6bbc>
  24:	00000005 	lsa	zero,zero,zero,0x1
  28:	10001101 	b	4430 <INITLOCATE-0x7fffbbd0>
  2c:	12011106 	beq	s0,at,4448 <INITLOCATE-0x7fffbbb8>
  30:	1b080301 	0x1b080301
  34:	13082508 	beq	t8,t0,9458 <INITLOCATE-0x7fff6ba8>
  38:	00000005 	lsa	zero,zero,zero,0x1
  3c:	10001101 	b	4444 <INITLOCATE-0x7fffbbbc>
  40:	12011106 	beq	s0,at,445c <INITLOCATE-0x7fffbba4>
  44:	1b080301 	0x1b080301
  48:	13082508 	beq	t8,t0,946c <INITLOCATE-0x7fff6b94>
  4c:	00000005 	lsa	zero,zero,zero,0x1
  50:	10001101 	b	4458 <INITLOCATE-0x7fffbba8>
  54:	12011106 	beq	s0,at,4470 <INITLOCATE-0x7fffbb90>
  58:	1b080301 	0x1b080301
  5c:	13082508 	beq	t8,t0,9480 <INITLOCATE-0x7fff6b80>
  60:	00000005 	lsa	zero,zero,zero,0x1
  64:	10001101 	b	446c <INITLOCATE-0x7fffbb94>
  68:	12011106 	beq	s0,at,4484 <INITLOCATE-0x7fffbb7c>
  6c:	1b080301 	0x1b080301
  70:	13082508 	beq	t8,t0,9494 <INITLOCATE-0x7fff6b6c>
  74:	00000005 	lsa	zero,zero,zero,0x1
  78:	10001101 	b	4480 <INITLOCATE-0x7fffbb80>
  7c:	12011106 	beq	s0,at,4498 <INITLOCATE-0x7fffbb68>
  80:	1b080301 	0x1b080301
  84:	13082508 	beq	t8,t0,94a8 <INITLOCATE-0x7fff6b58>
  88:	00000005 	lsa	zero,zero,zero,0x1
  8c:	10001101 	b	4494 <INITLOCATE-0x7fffbb6c>
  90:	12011106 	beq	s0,at,44ac <INITLOCATE-0x7fffbb54>
  94:	1b080301 	0x1b080301
  98:	13082508 	beq	t8,t0,94bc <INITLOCATE-0x7fff6b44>
  9c:	00000005 	lsa	zero,zero,zero,0x1
  a0:	10001101 	b	44a8 <INITLOCATE-0x7fffbb58>
  a4:	03065506 	0x3065506
  a8:	25081b08 	addiu	t0,t0,6920
  ac:	00051308 	0x51308
  b0:	11010000 	beq	t0,at,b4 <INITLOCATE-0x7fffff4c>
  b4:	11061000 	beq	t0,a2,40b8 <INITLOCATE-0x7fffbf48>
  b8:	03011201 	0x3011201
  bc:	25081b08 	addiu	t0,t0,6920
  c0:	00051308 	0x51308
	...

Disassembly of section .debug_aranges:

00000000 <.debug_aranges>:
   0:	0000001c 	0x1c
   4:	00000002 	srl	zero,zero,0x0
   8:	00040000 	sll	zero,a0,0x0
   c:	00000000 	nop
  10:	80002138 	lb	zero,8504(zero)
  14:	0000016c 	0x16c
	...
  20:	0000001c 	0x1c
  24:	005f0002 	0x5f0002
  28:	00040000 	sll	zero,a0,0x0
  2c:	00000000 	nop
  30:	80002000 	lb	zero,8192(zero)
  34:	00000138 	0x138
	...
  40:	0000001c 	0x1c
  44:	00c00002 	0xc00002
  48:	00040000 	sll	zero,a0,0x0
  4c:	00000000 	nop
  50:	800022a4 	lb	zero,8868(zero)
  54:	00000180 	sll	zero,zero,0x6
	...
  60:	0000001c 	0x1c
  64:	01200002 	0x1200002
  68:	00040000 	sll	zero,a0,0x0
  6c:	00000000 	nop
  70:	80001190 	lb	zero,4496(zero)
  74:	00000038 	0x38
	...
  80:	0000001c 	0x1c
  84:	01820002 	0x1820002
  88:	00040000 	sll	zero,a0,0x0
  8c:	00000000 	nop
  90:	800011c8 	lb	zero,4552(zero)
  94:	00000270 	tge	zero,zero,0x9
	...
  a0:	0000001c 	0x1c
  a4:	01e30002 	0x1e30002
  a8:	00040000 	sll	zero,a0,0x0
  ac:	00000000 	nop
  b0:	80001438 	lb	zero,5176(zero)
  b4:	00000308 	0x308
	...
  c0:	0000001c 	0x1c
  c4:	02450002 	0x2450002
  c8:	00040000 	sll	zero,a0,0x0
  cc:	00000000 	nop
  d0:	80002424 	lb	zero,9252(zero)
  d4:	000005f8 	0x5f8
	...
  e0:	0000001c 	0x1c
  e4:	02ab0002 	0x2ab0002
  e8:	00040000 	sll	zero,a0,0x0
  ec:	00000000 	nop
  f0:	80001740 	lb	zero,5952(zero)
  f4:	000001fc 	0x1fc
	...
 100:	0000002c 	0x2c
 104:	030c0002 	0x30c0002
 108:	00040000 	sll	zero,a0,0x0
 10c:	00000000 	nop
 110:	80000000 	lb	zero,0(zero)
 114:	00000010 	mfhi	zero
 118:	80001180 	lb	zero,4480(zero)
 11c:	00000010 	mfhi	zero
 120:	80001000 	lb	zero,4096(zero)
 124:	00000004 	sllv	zero,zero,zero
	...
 130:	0000001c 	0x1c
 134:	03690002 	0x3690002
 138:	00040000 	sll	zero,a0,0x0
 13c:	00000000 	nop
 140:	8000193c 	lb	zero,6460(zero)
 144:	00000164 	0x164
	...

Disassembly of section .debug_ranges:

00000000 <.debug_ranges>:
   0:	ffffffff 	sdc3	$31,-1(ra)
   4:	00000000 	nop
   8:	80000000 	lb	zero,0(zero)
   c:	80000010 	lb	zero,16(zero)
  10:	80001180 	lb	zero,4480(zero)
  14:	80001190 	lb	zero,4496(zero)
  18:	80001000 	lb	zero,4096(zero)
  1c:	80001004 	lb	zero,4100(zero)
	...
