
kernel.elf:     file format elf32-tradlittlemips


Disassembly of section .bss:

807f0000 <_sbss>:
	...

807f0080 <TCBT>:
	...

807f0088 <current>:
	...

Disassembly of section .reginfo:

807f0090 <.reginfo>:
807f0090:	80000f10 	lb	zero,3856(zero)
	...

Disassembly of section .MIPS.abiflags:

807f00a8 <.MIPS.abiflags>:
807f00a8:	02200000 	0x2200000
807f00ac:	01000101 	0x1000101
	...
807f00b8:	00000001 	movf	zero,zero,$fcc0
807f00bc:	00000000 	nop

Disassembly of section .text.init:

80000000 <INITLOCATE>:
80000000:	3c1a8000 	lui	k0,0x8000
80000004:	275a1350 	addiu	k0,k0,4944
80000008:	03400008 	jr	k0
8000000c:	00000000 	nop

Disassembly of section .text.ebase:

80001000 <TLBREFILL>:
80001000:	00000000 	nop

Disassembly of section .text.ebase180:

80001180 <EHANDLERLOCATE>:
80001180:	3c1a8000 	lui	k0,0x8000
80001184:	275a1938 	addiu	k0,k0,6456
80001188:	03400008 	jr	k0
8000118c:	00000000 	nop

Disassembly of section .text:

80001190 <SHOW_IMG>:
80001190:	3c09a000 	lui	t1,0xa000
80001194:	00805025 	move	t2,a0
80001198:	3c0b0007 	lui	t3,0x7
8000119c:	356b5300 	ori	t3,t3,0x5300
800011a0:	012b4821 	addu	t1,t1,t3
800011a4:	014b5021 	addu	t2,t2,t3

800011a8 <.draw>:
800011a8:	81480000 	lb	t0,0(t2)
800011ac:	a1280000 	sb	t0,0(t1)
800011b0:	256bffff 	addiu	t3,t3,-1
800011b4:	2529ffff 	addiu	t1,t1,-1
800011b8:	254affff 	addiu	t2,t2,-1
800011bc:	1560fffa 	bnez	t3,800011a8 <.draw>
800011c0:	00000000 	nop
800011c4:	03e00008 	jr	ra
800011c8:	00000000 	nop
800011cc:	00000000 	nop

800011d0 <fpn_mul>:
800011d0:	00850018 	mult	a0,a1
800011d4:	00001010 	mfhi	v0
800011d8:	00021400 	sll	v0,v0,0x10
800011dc:	00004012 	mflo	t0
800011e0:	00084402 	srl	t0,t0,0x10
800011e4:	03e00008 	jr	ra
800011e8:	00481020 	add	v0,v0,t0

800011ec <fpn_div>:
800011ec:	10a00020 	beqz	a1,80001270 <.div_by_zero>
800011f0:	3c0d8000 	lui	t5,0x8000
800011f4:	008d5824 	and	t3,a0,t5
800011f8:	11600003 	beqz	t3,80001208 <.div_a_pos>
800011fc:	00000000 	nop
80001200:	00042022 	neg	a0,a0
80001204:	240c0001 	li	t4,1

80001208 <.div_a_pos>:
80001208:	00ad5824 	and	t3,a1,t5
8000120c:	11600003 	beqz	t3,8000121c <.div_a_b_pos>
80001210:	00000000 	nop
80001214:	00052822 	neg	a1,a1
80001218:	398c0001 	xori	t4,t4,0x1

8000121c <.div_a_b_pos>:
8000121c:	0085001a 	div	zero,a0,a1
80001220:	00001012 	mflo	v0
80001224:	00021400 	sll	v0,v0,0x10
80001228:	00004810 	mfhi	t1
8000122c:	24080010 	li	t0,16
80001230:	240a0000 	li	t2,0

80001234 <.div_loop>:
80001234:	00094840 	sll	t1,t1,0x1
80001238:	000a5040 	sll	t2,t2,0x1
8000123c:	01255822 	sub	t3,t1,a1
80001240:	05600003 	bltz	t3,80001250 <.div_loop_final>
80001244:	00000000 	nop

80001248 <.div_plus_d>:
80001248:	254a0001 	addiu	t2,t2,1
8000124c:	01604825 	move	t1,t3

80001250 <.div_loop_final>:
80001250:	2508ffff 	addiu	t0,t0,-1
80001254:	1500fff7 	bnez	t0,80001234 <.div_loop>
80001258:	00000000 	nop

8000125c <.div_finally>:
8000125c:	11800002 	beqz	t4,80001268 <.div_ret>
80001260:	004a1020 	add	v0,v0,t2
80001264:	00021022 	neg	v0,v0

80001268 <.div_ret>:
80001268:	03e00008 	jr	ra
8000126c:	00000000 	nop

80001270 <.div_by_zero>:
80001270:	24020083 	li	v0,131
80001274:	0000200c 	syscall	0x80
80001278:	00000000 	nop
8000127c:	03e00008 	jr	ra
80001280:	00000000 	nop

80001284 <fpn_sqrt>:
80001284:	1c800005 	bgtz	a0,8000129c <.sqrt_common>
80001288:	00000000 	nop
8000128c:	04800019 	bltz	a0,800012f4 <.sqrt_neg>
80001290:	24020000 	li	v0,0
80001294:	03e00008 	jr	ra
80001298:	00000000 	nop

8000129c <.sqrt_common>:
8000129c:	27bdfff0 	addiu	sp,sp,-16
800012a0:	afbf000c 	sw	ra,12(sp)
800012a4:	afb00008 	sw	s0,8(sp)
800012a8:	afb10004 	sw	s1,4(sp)
800012ac:	afb20000 	sw	s2,0(sp)
800012b0:	00048042 	srl	s0,a0,0x1
800012b4:	00808825 	move	s1,a0
800012b8:	2412000a 	li	s2,10

800012bc <.sqrt_loop>:
800012bc:	02202025 	move	a0,s1
800012c0:	0c00047b 	jal	800011ec <fpn_div>
800012c4:	02002825 	move	a1,s0
800012c8:	02028020 	add	s0,s0,v0
800012cc:	2652ffff 	addiu	s2,s2,-1
800012d0:	1640fffa 	bnez	s2,800012bc <.sqrt_loop>
800012d4:	00108042 	srl	s0,s0,0x1
800012d8:	02001025 	move	v0,s0
800012dc:	8fbf000c 	lw	ra,12(sp)
800012e0:	8fb00008 	lw	s0,8(sp)
800012e4:	8fb10004 	lw	s1,4(sp)
800012e8:	8fb20000 	lw	s2,0(sp)
800012ec:	03e00008 	jr	ra
800012f0:	27bd0010 	addiu	sp,sp,16

800012f4 <.sqrt_neg>:
800012f4:	24020083 	li	v0,131
800012f8:	0000200c 	syscall	0x80
800012fc:	00000000 	nop
80001300:	03e00008 	jr	ra
80001304:	00000000 	nop
	...

80001310 <monitor_version>:
80001310:	636c6557 	0x636c6557
80001314:	20656d6f 	addi	a1,v1,28015
80001318:	46206f74 	cabs.olt.d	$fcc7,$f13,$f0
8000131c:	61746e61 	0x61746e61
80001320:	53207973 	beqzl	t9,8001f8f0 <UTEST_4MDCT+0x1d7a8>
80001324:	65636170 	0x65636170
80001328:	6f4d2021 	0x6f4d2021
8000132c:	6f74696e 	0x6f74696e
80001330:	656b2072 	0x656b2072
80001334:	6c656e72 	0x6c656e72
80001338:	696e6920 	0x696e6920
8000133c:	6c616974 	0x6c616974
80001340:	64657a69 	0x64657a69
80001344:	0000002e 	0x2e
80001348:	807f0000 	lb	ra,0(v1)
8000134c:	807f0090 	lb	ra,144(v1)

80001350 <START>:
80001350:	3c1a807f 	lui	k0,0x807f
80001354:	275a0000 	addiu	k0,k0,0
80001358:	3c1b807f 	lui	k1,0x807f
8000135c:	277b0090 	addiu	k1,k1,144

80001360 <bss_init>:
80001360:	135b0005 	beq	k0,k1,80001378 <bss_init_done>
80001364:	00000000 	nop
80001368:	af400000 	sw	zero,0(k0)
8000136c:	275a0004 	addiu	k0,k0,4
80001370:	1000fffb 	b	80001360 <bss_init>
80001374:	00000000 	nop

80001378 <bss_init_done>:
80001378:	40086000 	mfc0	t0,c0_status
8000137c:	00000000 	nop
80001380:	3909ff07 	xori	t1,t0,0xff07
80001384:	01094024 	and	t0,t0,t1
80001388:	40886000 	mtc0	t0,c0_status
8000138c:	00000000 	nop
80001390:	40086000 	mfc0	t0,c0_status
80001394:	3c090040 	lui	t1,0x40
80001398:	01094826 	xor	t1,t0,t1
8000139c:	01094024 	and	t0,t0,t1
800013a0:	40886000 	mtc0	t0,c0_status
800013a4:	340a1000 	li	t2,0x1000
800013a8:	408a7801 	mtc0	t2,c0_ebase
800013ac:	40086800 	mfc0	t0,c0_cause
800013b0:	3c090080 	lui	t1,0x80
800013b4:	01284826 	xor	t1,t1,t0
800013b8:	01094024 	and	t0,t0,t1
800013bc:	40886800 	mtc0	t0,c0_cause
800013c0:	3c1d8080 	lui	sp,0x8080
800013c4:	27bd0000 	addiu	sp,sp,0
800013c8:	03a0f025 	move	s8,sp
800013cc:	3c08807f 	lui	t0,0x807f
800013d0:	25080000 	addiu	t0,t0,0
800013d4:	3c09807f 	lui	t1,0x807f
800013d8:	ad280070 	sw	t0,112(t1)
800013dc:	3c09807f 	lui	t1,0x807f
800013e0:	ad280074 	sw	t0,116(t1)
800013e4:	3c08bfd0 	lui	t0,0xbfd0
800013e8:	34090010 	li	t1,0x10
800013ec:	a10903fc 	sb	t1,1020(t0)
800013f0:	40086000 	mfc0	t0,c0_status
800013f4:	35081000 	ori	t0,t0,0x1000
800013f8:	40886000 	mtc0	t0,c0_status
800013fc:	34080020 	li	t0,0x20
80001400:	2508ffff 	addiu	t0,t0,-1
80001404:	27bdfffc 	addiu	sp,sp,-4
80001408:	afa00000 	sw	zero,0(sp)
8000140c:	1500fffc 	bnez	t0,80001400 <bss_init_done+0x88>
80001410:	00000000 	nop
80001414:	3c08807f 	lui	t0,0x807f
80001418:	25080080 	addiu	t0,t0,128
8000141c:	ad1d0000 	sw	sp,0(t0)
80001420:	40096000 	mfc0	t1,c0_status
80001424:	400a6800 	mfc0	t2,c0_cause
80001428:	35290001 	ori	t1,t1,0x1
8000142c:	afaa0074 	sw	t2,116(sp)
80001430:	afa90070 	sw	t1,112(sp)
80001434:	3c0b8000 	lui	t3,0x8000
80001438:	256b14dc 	addiu	t3,t3,5340
8000143c:	afab0078 	sw	t3,120(sp)
80001440:	03a07025 	move	t6,sp
80001444:	34080020 	li	t0,0x20
80001448:	2508ffff 	addiu	t0,t0,-1
8000144c:	27bdfffc 	addiu	sp,sp,-4
80001450:	afa00000 	sw	zero,0(sp)
80001454:	1500fffc 	bnez	t0,80001448 <bss_init_done+0xd0>
80001458:	00000000 	nop
8000145c:	3c08807f 	lui	t0,0x807f
80001460:	25080080 	addiu	t0,t0,128
80001464:	ad1d0004 	sw	sp,4(t0)
80001468:	addd007c 	sw	sp,124(t6)
8000146c:	3c0a807f 	lui	t2,0x807f
80001470:	254a0084 	addiu	t2,t2,132
80001474:	8d4a0000 	lw	t2,0(t2)
80001478:	3c09807f 	lui	t1,0x807f
8000147c:	ad2a0088 	sw	t2,136(t1)
80001480:	40086000 	mfc0	t0,c0_status
80001484:	00000000 	nop
80001488:	35080001 	ori	t0,t0,0x1
8000148c:	39091000 	xori	t1,t0,0x1000
80001490:	01094024 	and	t0,t0,t1
80001494:	40886000 	mtc0	t0,c0_status
80001498:	00000000 	nop
8000149c:	08000529 	j	800014a4 <WELCOME>
800014a0:	00000000 	nop

800014a4 <WELCOME>:
800014a4:	3c108000 	lui	s0,0x8000
800014a8:	26101310 	addiu	s0,s0,4880
800014ac:	82040000 	lb	a0,0(s0)
800014b0:	26100001 	addiu	s0,s0,1
800014b4:	0c0006e3 	jal	80001b8c <WRITESERIAL>
800014b8:	00000000 	nop
800014bc:	82040000 	lb	a0,0(s0)
800014c0:	1480fffb 	bnez	a0,800014b0 <WELCOME+0xc>
800014c4:	00000000 	nop
800014c8:	3c048040 	lui	a0,0x8040
800014cc:	0c000464 	jal	80001190 <SHOW_IMG>
800014d0:	00000000 	nop
800014d4:	08000554 	j	80001550 <SHELL>
800014d8:	00000000 	nop

800014dc <IDLELOOP>:
	...
80001504:	08000537 	j	800014dc <IDLELOOP>
80001508:	00000000 	nop
8000150c:	00000000 	nop

80001510 <SCHEDULE>:
80001510:	3c09807f 	lui	t1,0x807f
80001514:	25290080 	addiu	t1,t1,128
80001518:	8d2a0000 	lw	t2,0(t1)
8000151c:	3c0c807f 	lui	t4,0x807f
80001520:	8d8b0088 	lw	t3,136(t4)
80001524:	00000000 	nop
80001528:	154b0003 	bne	t2,t3,80001538 <SCHEDULE+0x28>
8000152c:	00000000 	nop
80001530:	8d2a0004 	lw	t2,4(t1)
80001534:	00000000 	nop
80001538:	0140e825 	move	sp,t2
8000153c:	ad9d0088 	sw	sp,136(t4)
80001540:	08000688 	j	80001a20 <RETURNFRMTRAP>
80001544:	00000000 	nop
	...

80001550 <SHELL>:
80001550:	0c0006ee 	jal	80001bb8 <READSERIAL>
80001554:	00000000 	nop
80001558:	34080052 	li	t0,0x52
8000155c:	10480026 	beq	v0,t0,800015f8 <.OP_R>
80001560:	00000000 	nop
80001564:	34080044 	li	t0,0x44
80001568:	10480034 	beq	v0,t0,8000163c <.OP_D>
8000156c:	00000000 	nop
80001570:	34080041 	li	t0,0x41
80001574:	10480046 	beq	v0,t0,80001690 <.OP_A>
80001578:	00000000 	nop
8000157c:	34080047 	li	t0,0x47
80001580:	10480059 	beq	v0,t0,800016e8 <.OP_G>
80001584:	00000000 	nop
80001588:	34080054 	li	t0,0x54
8000158c:	10480003 	beq	v0,t0,8000159c <.OP_T>
80001590:	00000000 	nop
80001594:	08000609 	j	80001824 <.DONE>
80001598:	00000000 	nop

8000159c <.OP_T>:
8000159c:	0c0006fb 	jal	80001bec <READSERIALWORD>
800015a0:	00000000 	nop
800015a4:	27bdffe8 	addiu	sp,sp,-24
800015a8:	afb00000 	sw	s0,0(sp)
800015ac:	afb10004 	sw	s1,4(sp)
800015b0:	2410ffff 	li	s0,-1
800015b4:	afb0000c 	sw	s0,12(sp)
800015b8:	afb00010 	sw	s0,16(sp)
800015bc:	afb00014 	sw	s0,20(sp)
800015c0:	3411000c 	li	s1,0xc
800015c4:	27b0000c 	addiu	s0,sp,12
800015c8:	82040000 	lb	a0,0(s0)
800015cc:	2631ffff 	addiu	s1,s1,-1
800015d0:	0c0006e3 	jal	80001b8c <WRITESERIAL>
800015d4:	00000000 	nop
800015d8:	26100001 	addiu	s0,s0,1
800015dc:	1620fffa 	bnez	s1,800015c8 <.OP_T+0x2c>
800015e0:	00000000 	nop
800015e4:	8fb00000 	lw	s0,0(sp)
800015e8:	8fb10004 	lw	s1,4(sp)
800015ec:	27bd0018 	addiu	sp,sp,24
800015f0:	08000609 	j	80001824 <.DONE>
800015f4:	00000000 	nop

800015f8 <.OP_R>:
800015f8:	27bdfff8 	addiu	sp,sp,-8
800015fc:	afb00000 	sw	s0,0(sp)
80001600:	afb10004 	sw	s1,4(sp)
80001604:	3c10807f 	lui	s0,0x807f
80001608:	34110078 	li	s1,0x78
8000160c:	82040000 	lb	a0,0(s0)
80001610:	2631ffff 	addiu	s1,s1,-1
80001614:	0c0006e3 	jal	80001b8c <WRITESERIAL>
80001618:	00000000 	nop
8000161c:	26100001 	addiu	s0,s0,1
80001620:	1620fffa 	bnez	s1,8000160c <.OP_R+0x14>
80001624:	00000000 	nop
80001628:	8fb00000 	lw	s0,0(sp)
8000162c:	8fb10004 	lw	s1,4(sp)
80001630:	27bd0008 	addiu	sp,sp,8
80001634:	08000609 	j	80001824 <.DONE>
80001638:	00000000 	nop

8000163c <.OP_D>:
8000163c:	27bdfff8 	addiu	sp,sp,-8
80001640:	afb00000 	sw	s0,0(sp)
80001644:	afb10004 	sw	s1,4(sp)
80001648:	0c0006fb 	jal	80001bec <READSERIALWORD>
8000164c:	00000000 	nop
80001650:	00408025 	move	s0,v0
80001654:	0c0006fb 	jal	80001bec <READSERIALWORD>
80001658:	00000000 	nop
8000165c:	00408825 	move	s1,v0
80001660:	82040000 	lb	a0,0(s0)
80001664:	2631ffff 	addiu	s1,s1,-1
80001668:	0c0006e3 	jal	80001b8c <WRITESERIAL>
8000166c:	00000000 	nop
80001670:	26100001 	addiu	s0,s0,1
80001674:	1620fffa 	bnez	s1,80001660 <.OP_D+0x24>
80001678:	00000000 	nop
8000167c:	8fb00000 	lw	s0,0(sp)
80001680:	8fb10004 	lw	s1,4(sp)
80001684:	27bd0008 	addiu	sp,sp,8
80001688:	08000609 	j	80001824 <.DONE>
8000168c:	00000000 	nop

80001690 <.OP_A>:
80001690:	27bdfff8 	addiu	sp,sp,-8
80001694:	afb00000 	sw	s0,0(sp)
80001698:	afb10004 	sw	s1,4(sp)
8000169c:	0c0006fb 	jal	80001bec <READSERIALWORD>
800016a0:	00000000 	nop
800016a4:	00408025 	move	s0,v0
800016a8:	0c0006fb 	jal	80001bec <READSERIALWORD>
800016ac:	00000000 	nop
800016b0:	00408825 	move	s1,v0
800016b4:	00118882 	srl	s1,s1,0x2
800016b8:	0c0006fb 	jal	80001bec <READSERIALWORD>
800016bc:	00000000 	nop
800016c0:	ae020000 	sw	v0,0(s0)
800016c4:	2631ffff 	addiu	s1,s1,-1
800016c8:	26100004 	addiu	s0,s0,4
800016cc:	1620fffa 	bnez	s1,800016b8 <.OP_A+0x28>
800016d0:	00000000 	nop
800016d4:	8fb00000 	lw	s0,0(sp)
800016d8:	8fb10004 	lw	s1,4(sp)
800016dc:	27bd0008 	addiu	sp,sp,8
800016e0:	08000609 	j	80001824 <.DONE>
800016e4:	00000000 	nop

800016e8 <.OP_G>:
800016e8:	0c0006fb 	jal	80001bec <READSERIALWORD>
800016ec:	00000000 	nop
800016f0:	34040006 	li	a0,0x6
800016f4:	0c0006e3 	jal	80001b8c <WRITESERIAL>
800016f8:	00000000 	nop
800016fc:	40827000 	mtc0	v0,c0_epc
80001700:	3c1f807f 	lui	ra,0x807f
80001704:	27ff0000 	addiu	ra,ra,0
80001708:	afe20078 	sw	v0,120(ra)
8000170c:	affd007c 	sw	sp,124(ra)
80001710:	8fe10000 	lw	at,0(ra)
80001714:	8fe20004 	lw	v0,4(ra)
80001718:	8fe30008 	lw	v1,8(ra)
8000171c:	8fe4000c 	lw	a0,12(ra)
80001720:	8fe50010 	lw	a1,16(ra)
80001724:	8fe60014 	lw	a2,20(ra)
80001728:	8fe70018 	lw	a3,24(ra)
8000172c:	8fe8001c 	lw	t0,28(ra)
80001730:	8fe90020 	lw	t1,32(ra)
80001734:	8fea0024 	lw	t2,36(ra)
80001738:	8feb0028 	lw	t3,40(ra)
8000173c:	8fec002c 	lw	t4,44(ra)
80001740:	8fed0030 	lw	t5,48(ra)
80001744:	8fee0034 	lw	t6,52(ra)
80001748:	8fef0038 	lw	t7,56(ra)
8000174c:	8ff0003c 	lw	s0,60(ra)
80001750:	8ff10040 	lw	s1,64(ra)
80001754:	8ff20044 	lw	s2,68(ra)
80001758:	8ff30048 	lw	s3,72(ra)
8000175c:	8ff4004c 	lw	s4,76(ra)
80001760:	8ff50050 	lw	s5,80(ra)
80001764:	8ff60054 	lw	s6,84(ra)
80001768:	8ff70058 	lw	s7,88(ra)
8000176c:	8ff8005c 	lw	t8,92(ra)
80001770:	8ff90060 	lw	t9,96(ra)
80001774:	8ffc006c 	lw	gp,108(ra)
80001778:	8ffd0070 	lw	sp,112(ra)
8000177c:	8ffe0074 	lw	s8,116(ra)
80001780:	3c1f8000 	lui	ra,0x8000
80001784:	27ff1790 	addiu	ra,ra,6032
80001788:	00000000 	nop
8000178c:	42000018 	eret

80001790 <.USERRET2>:
80001790:	00000000 	nop
80001794:	3c1f807f 	lui	ra,0x807f
80001798:	27ff0000 	addiu	ra,ra,0
8000179c:	afe10000 	sw	at,0(ra)
800017a0:	afe20004 	sw	v0,4(ra)
800017a4:	afe30008 	sw	v1,8(ra)
800017a8:	afe4000c 	sw	a0,12(ra)
800017ac:	afe50010 	sw	a1,16(ra)
800017b0:	afe60014 	sw	a2,20(ra)
800017b4:	afe70018 	sw	a3,24(ra)
800017b8:	afe8001c 	sw	t0,28(ra)
800017bc:	afe90020 	sw	t1,32(ra)
800017c0:	afea0024 	sw	t2,36(ra)
800017c4:	afeb0028 	sw	t3,40(ra)
800017c8:	afec002c 	sw	t4,44(ra)
800017cc:	afed0030 	sw	t5,48(ra)
800017d0:	afee0034 	sw	t6,52(ra)
800017d4:	afef0038 	sw	t7,56(ra)
800017d8:	aff0003c 	sw	s0,60(ra)
800017dc:	aff10040 	sw	s1,64(ra)
800017e0:	aff20044 	sw	s2,68(ra)
800017e4:	aff30048 	sw	s3,72(ra)
800017e8:	aff4004c 	sw	s4,76(ra)
800017ec:	aff50050 	sw	s5,80(ra)
800017f0:	aff60054 	sw	s6,84(ra)
800017f4:	aff70058 	sw	s7,88(ra)
800017f8:	aff8005c 	sw	t8,92(ra)
800017fc:	aff90060 	sw	t9,96(ra)
80001800:	affc006c 	sw	gp,108(ra)
80001804:	affd0070 	sw	sp,112(ra)
80001808:	affe0074 	sw	s8,116(ra)
8000180c:	8ffd007c 	lw	sp,124(ra)
80001810:	34040007 	li	a0,0x7
80001814:	0c0006e3 	jal	80001b8c <WRITESERIAL>
80001818:	00000000 	nop
8000181c:	08000609 	j	80001824 <.DONE>
80001820:	00000000 	nop

80001824 <.DONE>:
80001824:	08000554 	j	80001550 <SHELL>
80001828:	00000000 	nop
8000182c:	00000000 	nop

80001830 <TB_dist>:
80001830:	27bdfff8 	addiu	sp,sp,-8
80001834:	afbf0000 	sw	ra,0(sp)
80001838:	afb00004 	sw	s0,4(sp)
8000183c:	00864022 	sub	t0,a0,a2
80001840:	00a74822 	sub	t1,a1,a3
80001844:	01002025 	move	a0,t0
80001848:	0c000474 	jal	800011d0 <fpn_mul>
8000184c:	01002825 	move	a1,t0
80001850:	00408025 	move	s0,v0
80001854:	01202025 	move	a0,t1
80001858:	0c000474 	jal	800011d0 <fpn_mul>
8000185c:	01202825 	move	a1,t1
80001860:	0c0004a1 	jal	80001284 <fpn_sqrt>
80001864:	00502021 	addu	a0,v0,s0
80001868:	8fbf0000 	lw	ra,0(sp)
8000186c:	8fb00004 	lw	s0,4(sp)
80001870:	03e00008 	jr	ra
80001874:	27bd0008 	addiu	sp,sp,8

80001878 <UTEST_dist>:
80001878:	3c040032 	lui	a0,0x32
8000187c:	34847439 	ori	a0,a0,0x7439
80001880:	2405f980 	li	a1,-1664
80001884:	3c06ffa8 	lui	a2,0xffa8
80001888:	34c6c51f 	ori	a2,a2,0xc51f
8000188c:	24071830 	li	a3,6192
80001890:	0800060c 	j	80001830 <TB_dist>
80001894:	00000000 	nop

80001898 <TB_gravity>:
80001898:	27bdfffc 	addiu	sp,sp,-4
8000189c:	afbf0000 	sw	ra,0(sp)
800018a0:	00807025 	move	t6,a0
800018a4:	0c00060c 	jal	80001830 <TB_dist>
800018a8:	00a07825 	move	t7,a1
800018ac:	00402025 	move	a0,v0
800018b0:	0c000474 	jal	800011d0 <fpn_mul>
800018b4:	00402825 	move	a1,v0
800018b8:	0c000474 	jal	800011d0 <fpn_mul>
800018bc:	00402025 	move	a0,v0
800018c0:	03001025 	move	v0,t8
800018c4:	00ef2023 	subu	a0,a3,t7
800018c8:	0c00047b 	jal	800011ec <fpn_div>
800018cc:	03002825 	move	a1,t8
800018d0:	00401825 	move	v1,v0
800018d4:	00ce2023 	subu	a0,a2,t6
800018d8:	0c00047b 	jal	800011ec <fpn_div>
800018dc:	03002825 	move	a1,t8
800018e0:	8fbf0000 	lw	ra,0(sp)
800018e4:	03e00008 	jr	ra
800018e8:	27bd0004 	addiu	sp,sp,4

800018ec <UTEST_gravity>:
800018ec:	3c040014 	lui	a0,0x14
800018f0:	34847439 	ori	a0,a0,0x7439
800018f4:	2405f980 	li	a1,-1664
800018f8:	3c06ffa8 	lui	a2,0xffa8
800018fc:	34c6c51f 	ori	a2,a2,0xc51f
80001900:	3c07fffe 	lui	a3,0xfffe
80001904:	08000626 	j	80001898 <TB_gravity>
80001908:	00000000 	nop
8000190c:	00000000 	nop

80001910 <FATAL>:
80001910:	34040080 	li	a0,0x80
80001914:	0c0006e3 	jal	80001b8c <WRITESERIAL>
80001918:	00000000 	nop
8000191c:	8fa40078 	lw	a0,120(sp)
80001920:	0c000720 	jal	80001c80 <WRITESERIALWORD>
80001924:	00000000 	nop
80001928:	3c028000 	lui	v0,0x8000
8000192c:	24421350 	addiu	v0,v0,4944
80001930:	00400008 	jr	v0
80001934:	00000000 	nop

80001938 <EXCEPTIONHANDLER>:
80001938:	401a6000 	mfc0	k0,c0_status
8000193c:	00000000 	nop
80001940:	3b5b0001 	xori	k1,k0,0x1
80001944:	037ad024 	and	k0,k1,k0
80001948:	409a6000 	mtc0	k0,c0_status
8000194c:	3c1a807f 	lui	k0,0x807f
80001950:	8f5a0088 	lw	k0,136(k0)
80001954:	af5d007c 	sw	sp,124(k0)
80001958:	0340e825 	move	sp,k0
8000195c:	afa10000 	sw	at,0(sp)
80001960:	afa20004 	sw	v0,4(sp)
80001964:	afa30008 	sw	v1,8(sp)
80001968:	afa4000c 	sw	a0,12(sp)
8000196c:	afa50010 	sw	a1,16(sp)
80001970:	afa60014 	sw	a2,20(sp)
80001974:	afa70018 	sw	a3,24(sp)
80001978:	afa8001c 	sw	t0,28(sp)
8000197c:	afa90020 	sw	t1,32(sp)
80001980:	afaa0024 	sw	t2,36(sp)
80001984:	afab0028 	sw	t3,40(sp)
80001988:	afac002c 	sw	t4,44(sp)
8000198c:	afad0030 	sw	t5,48(sp)
80001990:	afae0034 	sw	t6,52(sp)
80001994:	afaf0038 	sw	t7,56(sp)
80001998:	afb8003c 	sw	t8,60(sp)
8000199c:	afb90040 	sw	t9,64(sp)
800019a0:	afb00044 	sw	s0,68(sp)
800019a4:	afb10048 	sw	s1,72(sp)
800019a8:	afb2004c 	sw	s2,76(sp)
800019ac:	afb30050 	sw	s3,80(sp)
800019b0:	afb40054 	sw	s4,84(sp)
800019b4:	afb50058 	sw	s5,88(sp)
800019b8:	afb6005c 	sw	s6,92(sp)
800019bc:	afb70060 	sw	s7,96(sp)
800019c0:	afbc0064 	sw	gp,100(sp)
800019c4:	afbe0068 	sw	s8,104(sp)
800019c8:	afbf006c 	sw	ra,108(sp)
800019cc:	401a6000 	mfc0	k0,c0_status
800019d0:	401b6800 	mfc0	k1,c0_cause
800019d4:	afba0070 	sw	k0,112(sp)
800019d8:	401a7000 	mfc0	k0,c0_epc
800019dc:	afbb0074 	sw	k1,116(sp)
800019e0:	afba0078 	sw	k0,120(sp)
800019e4:	401a6800 	mfc0	k0,c0_cause
800019e8:	00000000 	nop
800019ec:	335b00ff 	andi	k1,k0,0xff
800019f0:	001bd882 	srl	k1,k1,0x2
800019f4:	341a0000 	li	k0,0x0
800019f8:	137a002f 	beq	k1,k0,80001ab8 <WAKEUPSHELL>
800019fc:	00000000 	nop
80001a00:	241a000a 	li	k0,10
80001a04:	137a0035 	beq	k1,k0,80001adc <INVALIDINST>
80001a08:	00000000 	nop
80001a0c:	341a0008 	li	k0,0x8
80001a10:	137a003c 	beq	k1,k0,80001b04 <SYSCALL>
80001a14:	00000000 	nop
80001a18:	08000644 	j	80001910 <FATAL>
80001a1c:	00000000 	nop

80001a20 <RETURNFRMTRAP>:
80001a20:	8fba0070 	lw	k0,112(sp)
80001a24:	375a0001 	ori	k0,k0,0x1
80001a28:	3b5b0004 	xori	k1,k0,0x4
80001a2c:	035bd024 	and	k0,k0,k1
80001a30:	8fbb0078 	lw	k1,120(sp)
80001a34:	409a6000 	mtc0	k0,c0_status
80001a38:	409b7000 	mtc0	k1,c0_epc
80001a3c:	8fa10000 	lw	at,0(sp)
80001a40:	8fa20004 	lw	v0,4(sp)
80001a44:	8fa30008 	lw	v1,8(sp)
80001a48:	8fa4000c 	lw	a0,12(sp)
80001a4c:	8fa50010 	lw	a1,16(sp)
80001a50:	8fa60014 	lw	a2,20(sp)
80001a54:	8fa70018 	lw	a3,24(sp)
80001a58:	8fa8001c 	lw	t0,28(sp)
80001a5c:	8fa90020 	lw	t1,32(sp)
80001a60:	8faa0024 	lw	t2,36(sp)
80001a64:	8fab0028 	lw	t3,40(sp)
80001a68:	8fac002c 	lw	t4,44(sp)
80001a6c:	8fad0030 	lw	t5,48(sp)
80001a70:	8fae0034 	lw	t6,52(sp)
80001a74:	8faf0038 	lw	t7,56(sp)
80001a78:	8fb8003c 	lw	t8,60(sp)
80001a7c:	8fb90040 	lw	t9,64(sp)
80001a80:	8fb00044 	lw	s0,68(sp)
80001a84:	8fb10048 	lw	s1,72(sp)
80001a88:	8fb2004c 	lw	s2,76(sp)
80001a8c:	8fb30050 	lw	s3,80(sp)
80001a90:	8fb40054 	lw	s4,84(sp)
80001a94:	8fb50058 	lw	s5,88(sp)
80001a98:	8fb6005c 	lw	s6,92(sp)
80001a9c:	8fb70060 	lw	s7,96(sp)
80001aa0:	8fbc0064 	lw	gp,100(sp)
80001aa4:	8fbe0068 	lw	s8,104(sp)
80001aa8:	8fbf006c 	lw	ra,108(sp)
80001aac:	8fbd007c 	lw	sp,124(sp)
80001ab0:	42000018 	eret
80001ab4:	00000000 	nop

80001ab8 <WAKEUPSHELL>:
80001ab8:	3c09807f 	lui	t1,0x807f
80001abc:	8d290088 	lw	t1,136(t1)
80001ac0:	3c08807f 	lui	t0,0x807f
80001ac4:	8d080080 	lw	t0,128(t0)
80001ac8:	00000000 	nop
80001acc:	1509ffd4 	bne	t0,t1,80001a20 <RETURNFRMTRAP>
80001ad0:	00000000 	nop
80001ad4:	08000544 	j	80001510 <SCHEDULE>
80001ad8:	00000000 	nop

80001adc <INVALIDINST>:
80001adc:	24040090 	li	a0,144
80001ae0:	0c0006e3 	jal	80001b8c <WRITESERIAL>
80001ae4:	00000000 	nop
80001ae8:	8fa40078 	lw	a0,120(sp)
80001aec:	0c000720 	jal	80001c80 <WRITESERIALWORD>
80001af0:	00000000 	nop
80001af4:	3c028000 	lui	v0,0x8000
80001af8:	24421350 	addiu	v0,v0,4944
80001afc:	00400008 	jr	v0
80001b00:	00000000 	nop

80001b04 <SYSCALL>:
80001b04:	8fba0078 	lw	k0,120(sp)
80001b08:	275a0004 	addiu	k0,k0,4
80001b0c:	afba0078 	sw	k0,120(sp)
80001b10:	34080003 	li	t0,0x3
80001b14:	10480009 	beq	v0,t0,80001b3c <.syscall_wait>
80001b18:	00000000 	nop
80001b1c:	3408001e 	li	t0,0x1e
80001b20:	10480008 	beq	v0,t0,80001b44 <.syscall_putc>
80001b24:	00000000 	nop
80001b28:	34080083 	li	t0,0x83
80001b2c:	10480009 	beq	v0,t0,80001b54 <.syscall_nan>
80001b30:	00000000 	nop
80001b34:	08000688 	j	80001a20 <RETURNFRMTRAP>
80001b38:	00000000 	nop

80001b3c <.syscall_wait>:
80001b3c:	08000544 	j	80001510 <SCHEDULE>
80001b40:	00000000 	nop

80001b44 <.syscall_putc>:
80001b44:	0c0006e3 	jal	80001b8c <WRITESERIAL>
80001b48:	00000000 	nop
80001b4c:	08000688 	j	80001a20 <RETURNFRMTRAP>
80001b50:	00000000 	nop

80001b54 <.syscall_nan>:
80001b54:	2751fff8 	addiu	s1,k0,-8
80001b58:	0200f825 	move	ra,s0
80001b5c:	0c0006e3 	jal	80001b8c <WRITESERIAL>
80001b60:	24040091 	li	a0,145
80001b64:	03e08025 	move	s0,ra
80001b68:	0c000720 	jal	80001c80 <WRITESERIALWORD>
80001b6c:	02202025 	move	a0,s1
80001b70:	08000688 	j	80001a20 <RETURNFRMTRAP>
80001b74:	00000000 	nop
	...

80001b80 <GET_CUR_PC>:
80001b80:	03e01025 	move	v0,ra
80001b84:	03e00008 	jr	ra
80001b88:	00000000 	nop

80001b8c <WRITESERIAL>:
80001b8c:	3c09bfd0 	lui	t1,0xbfd0

80001b90 <.TESTW>:
80001b90:	812803fc 	lb	t0,1020(t1)
80001b94:	31080001 	andi	t0,t0,0x1
80001b98:	15000003 	bnez	t0,80001ba8 <.WSERIAL>
80001b9c:	00000000 	nop
80001ba0:	080006e4 	j	80001b90 <.TESTW>
80001ba4:	00000000 	nop

80001ba8 <.WSERIAL>:
80001ba8:	3c09bfd0 	lui	t1,0xbfd0
80001bac:	a12403f8 	sb	a0,1016(t1)
80001bb0:	03e00008 	jr	ra
80001bb4:	00000000 	nop

80001bb8 <READSERIAL>:
80001bb8:	3c09bfd0 	lui	t1,0xbfd0

80001bbc <.TESTR>:
80001bbc:	812803fc 	lb	t0,1020(t1)
80001bc0:	31080002 	andi	t0,t0,0x2
80001bc4:	15000005 	bnez	t0,80001bdc <.RSERIAL>
80001bc8:	00000000 	nop
80001bcc:	34020003 	li	v0,0x3
80001bd0:	0000200c 	syscall	0x80
80001bd4:	080006ef 	j	80001bbc <.TESTR>
80001bd8:	00000000 	nop

80001bdc <.RSERIAL>:
80001bdc:	3c09bfd0 	lui	t1,0xbfd0
80001be0:	812203f8 	lb	v0,1016(t1)
80001be4:	03e00008 	jr	ra
80001be8:	00000000 	nop

80001bec <READSERIALWORD>:
80001bec:	27bdffec 	addiu	sp,sp,-20
80001bf0:	afbf0000 	sw	ra,0(sp)
80001bf4:	afb00004 	sw	s0,4(sp)
80001bf8:	afb10008 	sw	s1,8(sp)
80001bfc:	afb2000c 	sw	s2,12(sp)
80001c00:	afb30010 	sw	s3,16(sp)
80001c04:	0c0006ee 	jal	80001bb8 <READSERIAL>
80001c08:	00000000 	nop
80001c0c:	00028025 	or	s0,zero,v0
80001c10:	0c0006ee 	jal	80001bb8 <READSERIAL>
80001c14:	00000000 	nop
80001c18:	00028825 	or	s1,zero,v0
80001c1c:	0c0006ee 	jal	80001bb8 <READSERIAL>
80001c20:	00000000 	nop
80001c24:	00029025 	or	s2,zero,v0
80001c28:	0c0006ee 	jal	80001bb8 <READSERIAL>
80001c2c:	00000000 	nop
80001c30:	00029825 	or	s3,zero,v0
80001c34:	321000ff 	andi	s0,s0,0xff
80001c38:	327300ff 	andi	s3,s3,0xff
80001c3c:	325200ff 	andi	s2,s2,0xff
80001c40:	323100ff 	andi	s1,s1,0xff
80001c44:	00131025 	or	v0,zero,s3
80001c48:	00021200 	sll	v0,v0,0x8
80001c4c:	00521025 	or	v0,v0,s2
80001c50:	00021200 	sll	v0,v0,0x8
80001c54:	00511025 	or	v0,v0,s1
80001c58:	00021200 	sll	v0,v0,0x8
80001c5c:	00501025 	or	v0,v0,s0
80001c60:	8fbf0000 	lw	ra,0(sp)
80001c64:	8fb00004 	lw	s0,4(sp)
80001c68:	8fb10008 	lw	s1,8(sp)
80001c6c:	8fb2000c 	lw	s2,12(sp)
80001c70:	8fb30010 	lw	s3,16(sp)
80001c74:	27bd0014 	addiu	sp,sp,20
80001c78:	03e00008 	jr	ra
80001c7c:	00000000 	nop

80001c80 <WRITESERIALWORD>:
80001c80:	27bdffec 	addiu	sp,sp,-20
80001c84:	afbf0000 	sw	ra,0(sp)
80001c88:	afb00004 	sw	s0,4(sp)
80001c8c:	afb10008 	sw	s1,8(sp)
80001c90:	afb2000c 	sw	s2,12(sp)
80001c94:	afb30010 	sw	s3,16(sp)
80001c98:	0c0006e3 	jal	80001b8c <WRITESERIAL>
80001c9c:	00000000 	nop
80001ca0:	00042202 	srl	a0,a0,0x8
80001ca4:	0c0006e3 	jal	80001b8c <WRITESERIAL>
80001ca8:	00000000 	nop
80001cac:	00042202 	srl	a0,a0,0x8
80001cb0:	0c0006e3 	jal	80001b8c <WRITESERIAL>
80001cb4:	00000000 	nop
80001cb8:	00042202 	srl	a0,a0,0x8
80001cbc:	0c0006e3 	jal	80001b8c <WRITESERIAL>
80001cc0:	00000000 	nop
80001cc4:	8fbf0000 	lw	ra,0(sp)
80001cc8:	8fb00004 	lw	s0,4(sp)
80001ccc:	8fb10008 	lw	s1,8(sp)
80001cd0:	8fb2000c 	lw	s2,12(sp)
80001cd4:	8fb30010 	lw	s3,16(sp)
80001cd8:	27bd0014 	addiu	sp,sp,20
80001cdc:	03e00008 	jr	ra
80001ce0:	00000000 	nop
	...

80002000 <UTEST_SIMPLE>:
80002000:	24420001 	addiu	v0,v0,1
80002004:	03e00008 	jr	ra
80002008:	00000000 	nop

8000200c <UTEST_PUTC>:
8000200c:	3402001e 	li	v0,0x1e
80002010:	3404004f 	li	a0,0x4f
80002014:	0000200c 	syscall	0x80
80002018:	00000000 	nop
8000201c:	3404004b 	li	a0,0x4b
80002020:	0000200c 	syscall	0x80
80002024:	00000000 	nop

80002028 <PUTC_begin>:
80002028:	24080020 	li	t0,32

8000202c <PUTC_loop>:
8000202c:	25080001 	addiu	t0,t0,1
80002030:	2402001e 	li	v0,30
80002034:	01002025 	move	a0,t0
80002038:	0000200c 	syscall	0x80
8000203c:	00000000 	nop
80002040:	2509ff81 	addiu	t1,t0,-127
80002044:	1520fff9 	bnez	t1,8000202c <PUTC_loop>
80002048:	00000000 	nop
8000204c:	03e00008 	jr	ra
80002050:	00000000 	nop

80002054 <UTEST_IMAGE>:
80002054:	3c09a000 	lui	t1,0xa000
80002058:	3c0a8047 	lui	t2,0x8047
8000205c:	354a5300 	ori	t2,t2,0x5300
80002060:	3c020007 	lui	v0,0x7
80002064:	34425300 	ori	v0,v0,0x5300
80002068:	01224821 	addu	t1,t1,v0
8000206c:	01425021 	addu	t2,t2,v0

80002070 <IMAGE_draw>:
80002070:	81480000 	lb	t0,0(t2)
80002074:	a1280000 	sb	t0,0(t1)
80002078:	2442ffff 	addiu	v0,v0,-1
8000207c:	2529ffff 	addiu	t1,t1,-1
80002080:	254affff 	addiu	t2,t2,-1
80002084:	1440fffa 	bnez	v0,80002070 <IMAGE_draw>
80002088:	00000000 	nop
8000208c:	03e00008 	jr	ra
80002090:	00000000 	nop

80002094 <UTEST_RI>:
80002094:	2d080001 	sltiu	t0,t0,1
80002098:	03e00008 	jr	ra
8000209c:	00000000 	nop

800020a0 <UTEST_1PTB>:
800020a0:	3c080400 	lui	t0,0x400
	...
800020b0:	2508ffff 	addiu	t0,t0,-1
800020b4:	34090000 	li	t1,0x0
800020b8:	340a0001 	li	t2,0x1
800020bc:	340b0002 	li	t3,0x2
800020c0:	1500fffb 	bnez	t0,800020b0 <UTEST_1PTB+0x10>
800020c4:	00000000 	nop
800020c8:	00000000 	nop
800020cc:	03e00008 	jr	ra
800020d0:	00000000 	nop

800020d4 <UTEST_2DCT>:
800020d4:	3c080100 	lui	t0,0x100
800020d8:	34090001 	li	t1,0x1
800020dc:	340a0002 	li	t2,0x2
800020e0:	340b0003 	li	t3,0x3
800020e4:	01495026 	xor	t2,t2,t1
800020e8:	012a4826 	xor	t1,t1,t2
800020ec:	01495026 	xor	t2,t2,t1
800020f0:	016a5826 	xor	t3,t3,t2
800020f4:	014b5026 	xor	t2,t2,t3
800020f8:	016a5826 	xor	t3,t3,t2
800020fc:	012b4826 	xor	t1,t1,t3
80002100:	01695826 	xor	t3,t3,t1
80002104:	012b4826 	xor	t1,t1,t3
80002108:	2508ffff 	addiu	t0,t0,-1
8000210c:	1500fff5 	bnez	t0,800020e4 <UTEST_2DCT+0x10>
80002110:	00000000 	nop
80002114:	03e00008 	jr	ra
80002118:	00000000 	nop

8000211c <UTEST_3CCT>:
8000211c:	3c080400 	lui	t0,0x400
80002120:	15000003 	bnez	t0,80002130 <UTEST_3CCT+0x14>
80002124:	00000000 	nop
80002128:	03e00008 	jr	ra
8000212c:	00000000 	nop
80002130:	0800084e 	j	80002138 <UTEST_3CCT+0x1c>
80002134:	00000000 	nop
80002138:	2508ffff 	addiu	t0,t0,-1
8000213c:	08000848 	j	80002120 <UTEST_3CCT+0x4>
80002140:	2508ffff 	addiu	t0,t0,-1
80002144:	00000000 	nop

80002148 <UTEST_4MDCT>:
80002148:	3c080200 	lui	t0,0x200
8000214c:	27bdfffc 	addiu	sp,sp,-4
80002150:	afa80000 	sw	t0,0(sp)
80002154:	8fa90000 	lw	t1,0(sp)
80002158:	2529ffff 	addiu	t1,t1,-1
8000215c:	afa90000 	sw	t1,0(sp)
80002160:	8fa80000 	lw	t0,0(sp)
80002164:	1500fffa 	bnez	t0,80002150 <UTEST_4MDCT+0x8>
80002168:	00000000 	nop
8000216c:	27bd0004 	addiu	sp,sp,4
80002170:	03e00008 	jr	ra
80002174:	00000000 	nop

Disassembly of section .gnu.attributes:

00000000 <.gnu.attributes>:
   0:	00000f41 	0xf41
   4:	756e6700 	jalx	5b99c00 <INITLOCATE-0x7a466400>
   8:	00070100 	sll	zero,a3,0x4
   c:	01040000 	0x1040000

Disassembly of section .debug_line:

00000000 <.debug_line>:
   0:	00000042 	srl	zero,zero,0x1
   4:	00200003 	0x200003
   8:	01010000 	0x1010000
   c:	000d0efb 	0xd0efb
  10:	01010101 	0x1010101
  14:	01000000 	0x1000000
  18:	6b010000 	0x6b010000
  1c:	006e7265 	0x6e7265
  20:	2e766300 	sltiu	s6,s3,25344
  24:	00010053 	0x10053
  28:	05000000 	bltz	t0,2c <INITLOCATE-0x7fffffd4>
  2c:	00119002 	srl	s2,s1,0x0
  30:	010f0380 	0x10f0380
  34:	4b834b4b 	c2	0x1834b4b
  38:	4b4b4b4c 	c2	0x14b4b4c
  3c:	4b4b4b4b 	c2	0x14b4b4b
  40:	0004024b 	0x4024b
  44:	005b0101 	0x5b0101
  48:	00030000 	sll	zero,v1,0x0
  4c:	00000022 	neg	zero,zero
  50:	0efb0101 	jal	bec0404 <INITLOCATE-0x7413fbfc>
  54:	0101000d 	break	0x101
  58:	00000101 	0x101
  5c:	00000100 	sll	zero,zero,0x4
  60:	72656b01 	0x72656b01
  64:	6500006e 	0x6500006e
  68:	2e636576 	sltiu	v1,s3,25974
  6c:	00010053 	0x10053
  70:	05000000 	bltz	t0,74 <INITLOCATE-0x7fffff8c>
  74:	00000002 	srl	zero,zero,0x0
  78:	010b0380 	0x10b0380
  7c:	024b4b4b 	0x24b4b4b
  80:	01010004 	sllv	zero,at,t0
  84:	80020500 	lb	v0,1280(zero)
  88:	03800011 	mthi	gp
  8c:	4b4b0112 	c2	0x14b0112
  90:	0004024b 	0x4024b
  94:	05000101 	bltz	t0,49c <INITLOCATE-0x7ffffb64>
  98:	00100002 	srl	zero,s0,0x0
  9c:	01230380 	0x1230380
  a0:	01000402 	0x1000402
  a4:	00008701 	0x8701
  a8:	21000300 	addi	zero,t0,768
  ac:	01000000 	0x1000000
  b0:	0d0efb01 	jal	43bec04 <INITLOCATE-0x7bc413fc>
  b4:	01010100 	0x1010100
  b8:	00000001 	movf	zero,zero,$fcc0
  bc:	01000001 	movf	zero,t0,$fcc0
  c0:	6e72656b 	0x6e72656b
  c4:	70660000 	madd	v1,a2
  c8:	00532e6e 	0x532e6e
  cc:	00000001 	movf	zero,zero,$fcc0
  d0:	d0020500 	0xd0020500
  d4:	03800011 	mthi	gp
  d8:	4b4b011d 	c2	0x14b011d
  dc:	4b4b4b4b 	c2	0x14b4b4b
  e0:	4b4a0d03 	c2	0x14a0d03
  e4:	4b4b4b4b 	c2	0x14b4b4b
  e8:	4b4b4d4b 	c2	0x14b4d4b
  ec:	4b4d4b4b 	c2	0x14d4b4b
  f0:	4b4b4b4b 	c2	0x14b4b4b
  f4:	4b4b4b4d 	c2	0x14b4b4d
  f8:	4d4b4d4b 	0x4d4b4d4b
  fc:	4b4e4b4b 	c2	0x14e4b4b
 100:	504b4d4b 	beql	v0,t3,13630 <INITLOCATE-0x7ffec9d0>
 104:	4b4b4b4b 	c2	0x14b4b4b
 108:	4b4a1503 	c2	0x14a1503
 10c:	4b4b4b4b 	c2	0x14b4b4b
 110:	4b4b4b4d 	c2	0x14b4b4d
 114:	4b4b4b4b 	c2	0x14b4b4b
 118:	4b4b4b4c 	c2	0x14b4b4c
 11c:	4c4b4b4b 	0x4c4b4b4b
 120:	4b4b4b4b 	c2	0x14b4b4b
 124:	4b504b4b 	c2	0x1504b4b
 128:	024b4b4b 	0x24b4b4b
 12c:	01010004 	sllv	zero,at,t0
 130:	000000aa 	0xaa
 134:	00220003 	0x220003
 138:	01010000 	0x1010000
 13c:	000d0efb 	0xd0efb
 140:	01010101 	0x1010101
 144:	01000000 	0x1000000
 148:	6b010000 	0x6b010000
 14c:	006e7265 	0x6e7265
 150:	696e6900 	0x696e6900
 154:	00532e74 	teq	v0,s3,0xb9
 158:	00000001 	movf	zero,zero,$fcc0
 15c:	50020500 	beql	zero,v0,1560 <INITLOCATE-0x7fffeaa0>
 160:	03800013 	mtlo	gp
 164:	4b4b0132 	c2	0x14b0132
 168:	4b4b4c4b 	c2	0x14b4c4b
 16c:	4e4b4b4b 	c3	0x4b4b4b
 170:	4b4d4b4b 	c2	0x14d4b4b
 174:	4b4b4c4b 	c2	0x14b4c4b
 178:	4b4b4b4b 	c2	0x14b4b4b
 17c:	4b4b4b4b 	c2	0x14b4b4b
 180:	4b4b4c4b 	c2	0x14b4c4b
 184:	4b4b4b4b 	c2	0x14b4b4b
 188:	14034b4b 	bne	zero,v1,12eb8 <INITLOCATE-0x7ffed148>
 18c:	4f4b4b4a 	c3	0x14b4b4a
 190:	4c4e4b4b 	0x4c4e4b4b
 194:	4b4b4b4b 	c2	0x14b4b4b
 198:	4c4b4b4b 	0x4c4b4b4b
 19c:	4b4b4b4b 	c2	0x14b4b4b
 1a0:	4c4b4b4b 	0x4c4b4b4b
 1a4:	4b4b4c4c 	c2	0x14b4c4c
 1a8:	4b4b4b4b 	c2	0x14b4b4b
 1ac:	4b4c4b4b 	c2	0x14c4b4b
 1b0:	034b4b4b 	0x34b4b4b
 1b4:	4b4a00eb 	c2	0x14a00eb
 1b8:	4b4b4b4b 	c2	0x14b4b4b
 1bc:	4f4b4d4b 	c3	0x14b4d4b
 1c0:	4b4c4b4b 	c2	0x14c4b4b
 1c4:	4b4b4b4b 	c2	0x14b4b4b
 1c8:	4b4b4b4b 	c2	0x14b4b4b
 1cc:	4b4b4f4b 	c2	0x14b4f4b
 1d0:	4b4b4b4b 	c2	0x14b4b4b
 1d4:	4b4b4b4b 	c2	0x14b4b4b
 1d8:	0004024b 	0x4024b
 1dc:	00450101 	0x450101
 1e0:	00030000 	sll	zero,v1,0x0
 1e4:	00000023 	negu	zero,zero
 1e8:	0efb0101 	jal	bec0404 <INITLOCATE-0x7413fbfc>
 1ec:	0101000d 	break	0x101
 1f0:	00000101 	0x101
 1f4:	00000100 	sll	zero,zero,0x4
 1f8:	72656b01 	0x72656b01
 1fc:	7300006e 	0x7300006e
 200:	64656863 	0x64656863
 204:	0100532e 	0x100532e
 208:	00000000 	nop
 20c:	15100205 	bne	t0,s0,a24 <INITLOCATE-0x7ffff5dc>
 210:	0d038000 	jal	40e0000 <INITLOCATE-0x7bf20000>
 214:	4b4b4b01 	c2	0x14b4b01
 218:	4b4b4b4b 	c2	0x14b4b4b
 21c:	4b4c4b4b 	c2	0x14c4b4b
 220:	04024b4b 	bltzl	zero,12f50 <INITLOCATE-0x7ffed0b0>
 224:	f0010100 	0xf0010100
 228:	03000000 	0x3000000
 22c:	00002300 	sll	a0,zero,0xc
 230:	fb010100 	sdc2	$1,256(t8)
 234:	01000d0e 	0x1000d0e
 238:	00010101 	0x10101
 23c:	00010000 	sll	zero,at,0x0
 240:	656b0100 	0x656b0100
 244:	00006e72 	tlt	zero,zero,0x1b9
 248:	6c656873 	0x6c656873
 24c:	00532e6c 	0x532e6c
 250:	00000001 	movf	zero,zero,$fcc0
 254:	50020500 	beql	zero,v0,1658 <INITLOCATE-0x7fffe9a8>
 258:	03800015 	0x3800015
 25c:	4c4b011a 	0x4c4b011a
 260:	4b4b4b4b 	c2	0x14b4b4b
 264:	4b4b4b4b 	c2	0x14b4b4b
 268:	4b4b4b4b 	c2	0x14b4b4b
 26c:	4b4b4b4b 	c2	0x14b4b4b
 270:	4b4b4b4d 	c2	0x14b4b4d
 274:	4a11034b 	c2	0x11034b
 278:	4d4b4b4b 	0x4d4b4b4b
 27c:	4b4b4c4b 	c2	0x14b4c4b
 280:	4b4b4b4b 	c2	0x14b4b4b
 284:	4c4b4b4c 	0x4c4b4b4c
 288:	4b4b4d4b 	c2	0x14b4d4b
 28c:	4b4c4b4c 	c2	0x14c4b4c
 290:	4b4b4b4b 	c2	0x14b4b4b
 294:	4b4b4c4b 	c2	0x14b4c4b
 298:	4b4d4b4b 	c2	0x14d4b4b
 29c:	4b4b4c4b 	c2	0x14b4c4b
 2a0:	4d4b4b4b 	0x4d4b4b4b
 2a4:	4b4b4b4b 	c2	0x14b4b4b
 2a8:	4b4c4b4b 	c2	0x14c4b4b
 2ac:	4d4b4b4b 	0x4d4b4b4b
 2b0:	4b4c4b4b 	c2	0x14c4b4b
 2b4:	4b4b4b4b 	c2	0x14b4b4b
 2b8:	4b4b4c4b 	c2	0x14b4c4b
 2bc:	4b4b4b4b 	c2	0x14b4b4b
 2c0:	4b4b4b4c 	c2	0x14b4b4c
 2c4:	4c4b4d4b 	0x4c4b4d4b
 2c8:	4f4d4b4b 	c3	0x14d4b4b
 2cc:	4c4b4b4b 	0x4c4b4b4b
 2d0:	4b4b4b4b 	c2	0x14b4b4b
 2d4:	4b4b4b4b 	c2	0x14b4b4b
 2d8:	4b4b4b4b 	c2	0x14b4b4b
 2dc:	4b4b4b4b 	c2	0x14b4b4b
 2e0:	4b4b4b4b 	c2	0x14b4b4b
 2e4:	4b4b4b4b 	c2	0x14b4b4b
 2e8:	4c4b4b4d 	0x4c4b4b4d
 2ec:	504c4b4b 	beql	v0,t4,1301c <INITLOCATE-0x7ffecfe4>
 2f0:	4b4c4b4c 	c2	0x14c4b4c
 2f4:	4b4b4b4b 	c2	0x14b4b4b
 2f8:	4b4b4b4b 	c2	0x14b4b4b
 2fc:	4b4b4b4b 	c2	0x14b4b4b
 300:	4b4b4b4b 	c2	0x14b4b4b
 304:	4b4b4b4b 	c2	0x14b4b4b
 308:	4d4b4b4b 	0x4d4b4b4b
 30c:	4b4c4b4b 	c2	0x14c4b4b
 310:	4b4c4b4b 	c2	0x14c4b4b
 314:	04024b4d 	bltzl	zero,1304c <INITLOCATE-0x7ffecfb4>
 318:	98010100 	lwr	at,256(zero)
 31c:	03000000 	0x3000000
 320:	00002200 	sll	a0,zero,0x8
 324:	fb010100 	sdc2	$1,256(t8)
 328:	01000d0e 	0x1000d0e
 32c:	00010101 	0x10101
 330:	00010000 	sll	zero,at,0x0
 334:	656b0100 	0x656b0100
 338:	00006e72 	tlt	zero,zero,0x1b9
 33c:	74736574 	jalx	1cd95d0 <INITLOCATE-0x7e326a30>
 340:	0100532e 	0x100532e
 344:	00000000 	nop
 348:	20000205 	addi	zero,zero,517
 34c:	19038000 	0x19038000
 350:	514b4b01 	beql	t2,t3,12f58 <INITLOCATE-0x7ffed0a8>
 354:	4b4b4b4b 	c2	0x14b4b4b
 358:	4c4f4b4b 	0x4c4f4b4b
 35c:	4b4b4b4b 	c2	0x14b4b4b
 360:	4c4b4b4b 	0x4c4b4b4b
 364:	834b4f4b 	lb	t3,20299(k0)
 368:	4b4c4b83 	c2	0x14c4b83
 36c:	4b4b4b4b 	c2	0x14b4b4b
 370:	4f4b4b4b 	c3	0x14b4b4b
 374:	4b524b4b 	c2	0x1524b4b
 378:	4b4c4b4b 	c2	0x14c4b4b
 37c:	4b4b4b4b 	c2	0x14b4b4b
 380:	034b4b4b 	0x34b4b4b
 384:	4b4b4a09 	c2	0x14b4a09
 388:	4b4b4c4b 	c2	0x14b4c4b
 38c:	4b4b4b4b 	c2	0x14b4b4b
 390:	4b4b4b4b 	c2	0x14b4b4b
 394:	034b4b4b 	0x34b4b4b
 398:	4b4c4a09 	c2	0x14c4a09
 39c:	4b4c4b4b 	c2	0x14c4b4b
 3a0:	4b4b4b4c 	c2	0x14b4b4c
 3a4:	4b4a0903 	c2	0x14a0903
 3a8:	4b4b4b4c 	c2	0x14b4b4c
 3ac:	4b4b4b4b 	c2	0x14b4b4b
 3b0:	04024b4b 	bltzl	zero,130e0 <INITLOCATE-0x7ffecf20>
 3b4:	70010100 	0x70010100
 3b8:	03000000 	0x3000000
 3bc:	00002700 	sll	a0,zero,0x1c
 3c0:	fb010100 	sdc2	$1,256(t8)
 3c4:	01000d0e 	0x1000d0e
 3c8:	00010101 	0x10101
 3cc:	00010000 	sll	zero,at,0x0
 3d0:	656b0100 	0x656b0100
 3d4:	00006e72 	tlt	zero,zero,0x1b9
 3d8:	65726874 	0x65726874
 3dc:	646f6265 	0x646f6265
 3e0:	00532e79 	0x532e79
 3e4:	00000001 	movf	zero,zero,$fcc0
 3e8:	30020500 	andi	v0,zero,0x500
 3ec:	03800018 	mult	gp,zero
 3f0:	4b4b0115 	c2	0x14b0115
 3f4:	4b4b4b4b 	c2	0x14b4b4b
 3f8:	4b4b4b4b 	c2	0x14b4b4b
 3fc:	4b4b4b4b 	c2	0x14b4b4b
 400:	4e4b4b4b 	c3	0x4b4b4b
 404:	4b834b83 	c2	0x1834b83
 408:	4a0e034b 	c2	0xe034b
 40c:	4b4b4b4b 	c2	0x14b4b4b
 410:	4c4b4b4c 	0x4c4b4b4c
 414:	4b4c4c4b 	c2	0x14c4c4b
 418:	4b4c4b4b 	c2	0x14c4b4b
 41c:	4b4b4c4b 	c2	0x14b4c4b
 420:	834b834e 	lb	t3,-31922(k0)
 424:	04024b4b 	bltzl	zero,13154 <INITLOCATE-0x7ffeceac>
 428:	d0010100 	0xd0010100
 42c:	03000000 	0x3000000
 430:	00002200 	sll	a0,zero,0x8
 434:	fb010100 	sdc2	$1,256(t8)
 438:	01000d0e 	0x1000d0e
 43c:	00010101 	0x10101
 440:	00010000 	sll	zero,at,0x0
 444:	656b0100 	0x656b0100
 448:	00006e72 	tlt	zero,zero,0x1b9
 44c:	70617274 	0x70617274
 450:	0100532e 	0x100532e
 454:	00000000 	nop
 458:	19100205 	0x19100205
 45c:	1b038000 	0x1b038000
 460:	4b4b4b01 	c2	0x14b4b01
 464:	4b4b4b4b 	c2	0x14b4b4b
 468:	4b4e4b4b 	c2	0x14e4b4b
 46c:	4c4b4b4b 	0x4c4b4b4b
 470:	4b4b4c4b 	c2	0x14b4c4b
 474:	4b4b4b4b 	c2	0x14b4b4b
 478:	4b4b4b4b 	c2	0x14b4b4b
 47c:	4b4b4b4b 	c2	0x14b4b4b
 480:	4b4b4b4b 	c2	0x14b4b4b
 484:	4b4b4b4b 	c2	0x14b4b4b
 488:	4b4b4b4b 	c2	0x14b4b4b
 48c:	4b4b4b4b 	c2	0x14b4b4b
 490:	4b4b4b4b 	c2	0x14b4b4b
 494:	4b4b4d4b 	c2	0x14b4d4b
 498:	4b4b4b4b 	c2	0x14b4b4b
 49c:	4c4b4b4c 	0x4c4b4b4c
 4a0:	4b4e4b4b 	c2	0x14e4b4b
 4a4:	4b4b4b4e 	c2	0x14b4b4e
 4a8:	4b4b4b4b 	c2	0x14b4b4b
 4ac:	4b4b4b4b 	c2	0x14b4b4b
 4b0:	4b4b4b4b 	c2	0x14b4b4b
 4b4:	4b4b4b4b 	c2	0x14b4b4b
 4b8:	4b4b4b4b 	c2	0x14b4b4b
 4bc:	4b4b4b4b 	c2	0x14b4b4b
 4c0:	4b4b4b4b 	c2	0x14b4b4b
 4c4:	4c4b4b4b 	0x4c4b4b4b
 4c8:	4b4f4b4b 	c2	0x14f4b4b
 4cc:	4b4b4b4b 	c2	0x14b4b4b
 4d0:	4d4b4b4b 	0x4d4b4b4b
 4d4:	4b4b4b4b 	c2	0x14b4b4b
 4d8:	4b4b4b4b 	c2	0x14b4b4b
 4dc:	4b4b4e4b 	c2	0x14b4e4b
 4e0:	4b4b4b4b 	c2	0x14b4b4b
 4e4:	4b4d4b4b 	c2	0x14d4b4b
 4e8:	4d4b4c4b 	0x4d4b4c4b
 4ec:	4b4b4d4b 	c2	0x14b4d4b
 4f0:	4b4b4d4b 	c2	0x14b4d4b
 4f4:	4b4b4b4b 	c2	0x14b4b4b
 4f8:	04024b4b 	bltzl	zero,13228 <INITLOCATE-0x7ffecdd8>
 4fc:	94010100 	lhu	at,256(zero)
 500:	03000000 	0x3000000
 504:	00002300 	sll	a0,zero,0xc
 508:	fb010100 	sdc2	$1,256(t8)
 50c:	01000d0e 	0x1000d0e
 510:	00010101 	0x10101
 514:	00010000 	sll	zero,at,0x0
 518:	656b0100 	0x656b0100
 51c:	00006e72 	tlt	zero,zero,0x1b9
 520:	6c697475 	0x6c697475
 524:	00532e73 	tltu	v0,s3,0xb9
 528:	00000001 	movf	zero,zero,$fcc0
 52c:	80020500 	lb	v0,1280(zero)
 530:	0380001b 	divu	zero,gp,zero
 534:	4b4b010f 	c2	0x14b010f
 538:	4b4b4c4e 	c2	0x14b4c4e
 53c:	4c4b4b4b 	0x4c4b4b4b
 540:	034b4b4b 	0x34b4b4b
 544:	4b4c4a0a 	c2	0x14c4a0a
 548:	4b4c4b4b 	c2	0x14c4b4b
 54c:	4b4c4b4c 	c2	0x14c4b4c
 550:	18034b4b 	0x18034b4b
 554:	4b4b4b4a 	c2	0x14b4b4a
 558:	4b4c4b4b 	c2	0x14c4b4b
 55c:	4b4b4b4b 	c2	0x14b4b4b
 560:	4b4b4b4b 	c2	0x14b4b4b
 564:	4b4c4b4b 	c2	0x14c4b4b
 568:	4b4b4b4b 	c2	0x14b4b4b
 56c:	4b4b4b4b 	c2	0x14b4b4b
 570:	4b4b4c4b 	c2	0x14b4c4b
 574:	4b4b4b4b 	c2	0x14b4b4b
 578:	4b4b4d4b 	c2	0x14b4d4b
 57c:	4c4b4b4b 	0x4c4b4b4b
 580:	4b4b4b4b 	c2	0x14b4b4b
 584:	4b4b4b4b 	c2	0x14b4b4b
 588:	4b4c4b4b 	c2	0x14c4b4b
 58c:	4b4b4b4b 	c2	0x14b4b4b
 590:	04024b4b 	bltzl	zero,132c0 <INITLOCATE-0x7ffecd40>
 594:	Address 0x0000000000000594 is out of bounds.


Disassembly of section .debug_info:

00000000 <.debug_info>:
   0:	00000022 	neg	zero,zero
   4:	00000002 	srl	zero,zero,0x0
   8:	01040000 	0x1040000
   c:	00000000 	nop
  10:	80001190 	lb	zero,4496(zero)
  14:	800011cc 	lb	zero,4556(zero)
  18:	00000000 	nop
  1c:	0000000a 	movz	zero,zero,zero
  20:	00000033 	tltu	zero,zero
  24:	001e8001 	0x1e8001
  28:	00020000 	sll	zero,v0,0x0
  2c:	00000014 	0x14
  30:	00460104 	0x460104
  34:	00000000 	nop
  38:	003f0000 	0x3f0000
  3c:	000a0000 	sll	zero,t2,0x0
  40:	00330000 	0x330000
  44:	80010000 	lb	at,0(zero)
  48:	00000022 	neg	zero,zero
  4c:	00260002 	ror	zero,a2,0x0
  50:	01040000 	0x1040000
  54:	000000a5 	0xa5
  58:	800011d0 	lb	zero,4560(zero)
  5c:	80001308 	lb	zero,4872(zero)
  60:	0000004b 	0x4b
  64:	0000000a 	movz	zero,zero,zero
  68:	00000033 	tltu	zero,zero
  6c:	00228001 	0x228001
  70:	00020000 	sll	zero,v0,0x0
  74:	0000003a 	0x3a
  78:	01300104 	0x1300104
  7c:	13100000 	beq	t8,s0,80 <INITLOCATE-0x7fffff80>
  80:	150c8000 	bne	t0,t4,fffe0084 <SerialStat+0x402dfc88>
  84:	00568000 	0x568000
  88:	000a0000 	sll	zero,t2,0x0
  8c:	00330000 	0x330000
  90:	80010000 	lb	at,0(zero)
  94:	00000022 	neg	zero,zero
  98:	004e0002 	0x4e0002
  9c:	01040000 	0x1040000
  a0:	000001de 	0x1de
  a4:	80001510 	lb	zero,5392(zero)
  a8:	80001548 	lb	zero,5448(zero)
  ac:	00000062 	0x62
  b0:	0000000a 	movz	zero,zero,zero
  b4:	00000033 	tltu	zero,zero
  b8:	00228001 	0x228001
  bc:	00020000 	sll	zero,v0,0x0
  c0:	00000062 	0x62
  c4:	02270104 	0x2270104
  c8:	15500000 	bne	t2,s0,cc <INITLOCATE-0x7fffff34>
  cc:	182c8000 	0x182c8000
  d0:	006f8000 	0x6f8000
  d4:	000a0000 	sll	zero,t2,0x0
  d8:	00330000 	0x330000
  dc:	80010000 	lb	at,0(zero)
  e0:	00000022 	neg	zero,zero
  e4:	00760002 	0x760002
  e8:	01040000 	0x1040000
  ec:	0000031b 	0x31b
  f0:	80002000 	lb	zero,8192(zero)
  f4:	80002178 	lb	zero,8568(zero)
  f8:	0000007c 	0x7c
  fc:	0000000a 	movz	zero,zero,zero
 100:	00000033 	tltu	zero,zero
 104:	00228001 	0x228001
 108:	00020000 	sll	zero,v0,0x0
 10c:	0000008a 	0x8a
 110:	03b70104 	0x3b70104
 114:	18300000 	0x18300000
 118:	190c8000 	0x190c8000
 11c:	00888000 	0x888000
 120:	000a0000 	sll	zero,t2,0x0
 124:	00330000 	0x330000
 128:	80010000 	lb	at,0(zero)
 12c:	00000022 	neg	zero,zero
 130:	009e0002 	0x9e0002
 134:	01040000 	0x1040000
 138:	0000042b 	0x42b
 13c:	80001910 	lb	zero,6416(zero)
 140:	80001b78 	lb	zero,7032(zero)
 144:	00000099 	0x99
 148:	0000000a 	movz	zero,zero,zero
 14c:	00000033 	tltu	zero,zero
 150:	00228001 	0x228001
 154:	00020000 	sll	zero,v0,0x0
 158:	000000b2 	tlt	zero,zero,0x2
 15c:	04ff0104 	synci	260(a3)
 160:	1b800000 	blez	gp,164 <INITLOCATE-0x7ffffe9c>
 164:	1ce48000 	0x1ce48000
 168:	00a58000 	0xa58000
 16c:	000a0000 	sll	zero,t2,0x0
 170:	00330000 	0x330000
 174:	80010000 	lb	at,0(zero)

Disassembly of section .debug_abbrev:

00000000 <.debug_abbrev>:
   0:	10001101 	b	4408 <INITLOCATE-0x7fffbbf8>
   4:	12011106 	beq	s0,at,4420 <INITLOCATE-0x7fffbbe0>
   8:	1b0e0301 	0x1b0e0301
   c:	130e250e 	beq	t8,t6,9448 <INITLOCATE-0x7fff6bb8>
  10:	00000005 	lsa	zero,zero,zero,0x1
  14:	10001101 	b	441c <INITLOCATE-0x7fffbbe4>
  18:	03065506 	0x3065506
  1c:	250e1b0e 	addiu	t6,t0,6926
  20:	0005130e 	0x5130e
  24:	11010000 	beq	t0,at,28 <INITLOCATE-0x7fffffd8>
  28:	11061000 	beq	t0,a2,402c <INITLOCATE-0x7fffbfd4>
  2c:	03011201 	0x3011201
  30:	250e1b0e 	addiu	t6,t0,6926
  34:	0005130e 	0x5130e
  38:	11010000 	beq	t0,at,3c <INITLOCATE-0x7fffffc4>
  3c:	11061000 	beq	t0,a2,4040 <INITLOCATE-0x7fffbfc0>
  40:	03011201 	0x3011201
  44:	250e1b0e 	addiu	t6,t0,6926
  48:	0005130e 	0x5130e
  4c:	11010000 	beq	t0,at,50 <INITLOCATE-0x7fffffb0>
  50:	11061000 	beq	t0,a2,4054 <INITLOCATE-0x7fffbfac>
  54:	03011201 	0x3011201
  58:	250e1b0e 	addiu	t6,t0,6926
  5c:	0005130e 	0x5130e
  60:	11010000 	beq	t0,at,64 <INITLOCATE-0x7fffff9c>
  64:	11061000 	beq	t0,a2,4068 <INITLOCATE-0x7fffbf98>
  68:	03011201 	0x3011201
  6c:	250e1b0e 	addiu	t6,t0,6926
  70:	0005130e 	0x5130e
  74:	11010000 	beq	t0,at,78 <INITLOCATE-0x7fffff88>
  78:	11061000 	beq	t0,a2,407c <INITLOCATE-0x7fffbf84>
  7c:	03011201 	0x3011201
  80:	250e1b0e 	addiu	t6,t0,6926
  84:	0005130e 	0x5130e
  88:	11010000 	beq	t0,at,8c <INITLOCATE-0x7fffff74>
  8c:	11061000 	beq	t0,a2,4090 <INITLOCATE-0x7fffbf70>
  90:	03011201 	0x3011201
  94:	250e1b0e 	addiu	t6,t0,6926
  98:	0005130e 	0x5130e
  9c:	11010000 	beq	t0,at,a0 <INITLOCATE-0x7fffff60>
  a0:	11061000 	beq	t0,a2,40a4 <INITLOCATE-0x7fffbf5c>
  a4:	03011201 	0x3011201
  a8:	250e1b0e 	addiu	t6,t0,6926
  ac:	0005130e 	0x5130e
  b0:	11010000 	beq	t0,at,b4 <INITLOCATE-0x7fffff4c>
  b4:	11061000 	beq	t0,a2,40b8 <INITLOCATE-0x7fffbf48>
  b8:	03011201 	0x3011201
  bc:	250e1b0e 	addiu	t6,t0,6926
  c0:	0005130e 	0x5130e
	...

Disassembly of section .debug_aranges:

00000000 <.debug_aranges>:
   0:	0000001c 	0x1c
   4:	00000002 	srl	zero,zero,0x0
   8:	00040000 	sll	zero,a0,0x0
   c:	00000000 	nop
  10:	80001190 	lb	zero,4496(zero)
  14:	0000003c 	0x3c
	...
  20:	0000002c 	0x2c
  24:	00260002 	ror	zero,a2,0x0
  28:	00040000 	sll	zero,a0,0x0
  2c:	00000000 	nop
  30:	80000000 	lb	zero,0(zero)
  34:	00000010 	mfhi	zero
  38:	80001180 	lb	zero,4480(zero)
  3c:	00000010 	mfhi	zero
  40:	80001000 	lb	zero,4096(zero)
  44:	00000004 	sllv	zero,zero,zero
	...
  50:	0000001c 	0x1c
  54:	00480002 	0x480002
  58:	00040000 	sll	zero,a0,0x0
  5c:	00000000 	nop
  60:	800011d0 	lb	zero,4560(zero)
  64:	00000138 	0x138
	...
  70:	0000001c 	0x1c
  74:	006e0002 	0x6e0002
  78:	00040000 	sll	zero,a0,0x0
  7c:	00000000 	nop
  80:	80001310 	lb	zero,4880(zero)
  84:	000001fc 	0x1fc
	...
  90:	0000001c 	0x1c
  94:	00940002 	0x940002
  98:	00040000 	sll	zero,a0,0x0
  9c:	00000000 	nop
  a0:	80001510 	lb	zero,5392(zero)
  a4:	00000038 	0x38
	...
  b0:	0000001c 	0x1c
  b4:	00ba0002 	0xba0002
  b8:	00040000 	sll	zero,a0,0x0
  bc:	00000000 	nop
  c0:	80001550 	lb	zero,5456(zero)
  c4:	000002dc 	0x2dc
	...
  d0:	0000001c 	0x1c
  d4:	00e00002 	0xe00002
  d8:	00040000 	sll	zero,a0,0x0
  dc:	00000000 	nop
  e0:	80002000 	lb	zero,8192(zero)
  e4:	00000178 	0x178
	...
  f0:	0000001c 	0x1c
  f4:	01060002 	0x1060002
  f8:	00040000 	sll	zero,a0,0x0
  fc:	00000000 	nop
 100:	80001830 	lb	zero,6192(zero)
 104:	000000dc 	0xdc
	...
 110:	0000001c 	0x1c
 114:	012c0002 	0x12c0002
 118:	00040000 	sll	zero,a0,0x0
 11c:	00000000 	nop
 120:	80001910 	lb	zero,6416(zero)
 124:	00000268 	0x268
	...
 130:	0000001c 	0x1c
 134:	01520002 	0x1520002
 138:	00040000 	sll	zero,a0,0x0
 13c:	00000000 	nop
 140:	80001b80 	lb	zero,7040(zero)
 144:	00000164 	0x164
	...

Disassembly of section .debug_str:

00000000 <.debug_str>:
   0:	6e72656b 	0x6e72656b
   4:	2e76632f 	sltiu	s6,s3,25391
   8:	552f0053 	bnel	t1,t7,158 <INITLOCATE-0x7ffffea8>
   c:	73726573 	0x73726573
  10:	6d616a2f 	0x6d616a2f
  14:	542f7365 	bnel	at,t7,1cdac <INITLOCATE-0x7ffe3254>
  18:	2f747365 	sltiu	s4,k1,29541
  1c:	31646f63 	andi	a0,t3,0x6f63
  20:	70726739 	0x70726739
  24:	642f3631 	0x642f3631
  28:	2f6f6d65 	sltiu	t7,k1,28005
  2c:	6e72656b 	0x6e72656b
  30:	47006c65 	bz.b	$w0,1b1c8 <INITLOCATE-0x7ffe4e38>
  34:	4120554e 	0x4120554e
  38:	2e322053 	sltiu	s2,s1,8275
  3c:	6b003233 	0x6b003233
  40:	2f6e7265 	sltiu	t6,k1,29285
  44:	63657665 	0x63657665
  48:	6b00532e 	0x6b00532e
  4c:	2f6e7265 	sltiu	t6,k1,29285
  50:	2e6e7066 	sltiu	t6,s3,28774
  54:	656b0053 	0x656b0053
  58:	692f6e72 	0x692f6e72
  5c:	2e74696e 	sltiu	s4,s3,26990
  60:	656b0053 	0x656b0053
  64:	732f6e72 	0x732f6e72
  68:	64656863 	0x64656863
  6c:	6b00532e 	0x6b00532e
  70:	2f6e7265 	sltiu	t6,k1,29285
  74:	6c656873 	0x6c656873
  78:	00532e6c 	0x532e6c
  7c:	6e72656b 	0x6e72656b
  80:	7365742f 	0x7365742f
  84:	00532e74 	teq	v0,s3,0xb9
  88:	6e72656b 	0x6e72656b
  8c:	7268742f 	0x7268742f
  90:	6f626565 	0x6f626565
  94:	532e7964 	beql	t9,t6,1e628 <INITLOCATE-0x7ffe19d8>
  98:	72656b00 	0x72656b00
  9c:	72742f6e 	0x72742f6e
  a0:	532e7061 	beql	t9,t6,1c228 <INITLOCATE-0x7ffe3dd8>
  a4:	72656b00 	0x72656b00
  a8:	74752f6e 	jalx	1d4bdb8 <INITLOCATE-0x7e2b4248>
  ac:	2e736c69 	sltiu	s3,s3,27753
  b0:	Address 0x00000000000000b0 is out of bounds.


Disassembly of section .debug_ranges:

00000000 <.debug_ranges>:
   0:	ffffffff 	sdc3	$31,-1(ra)
   4:	00000000 	nop
   8:	80000000 	lb	zero,0(zero)
   c:	80000010 	lb	zero,16(zero)
  10:	80001180 	lb	zero,4480(zero)
  14:	80001190 	lb	zero,4496(zero)
  18:	80001000 	lb	zero,4096(zero)
  1c:	80001004 	lb	zero,4100(zero)
	...
