	.section .mdebug.abi32
	.previous
	.nan	legacy
	.module	fp=32
	.module	nooddspreg
	.abicalls
	.text
$Ltext0:
	.align	2
	.globl	_Z3divii
$LVL0 = .
$LFB0 = .
	.file 1 "fpn_math.cpp"
	.loc 1 3 35 view -0
	.cfi_startproc
	.set	nomips16
	.set	nomicromips
	.ent	_Z3divii
	.type	_Z3divii, @function
_Z3divii:
	.frame	$sp,0,$31		# vars= 0, regs= 0/0, args= 0, gp= 0
	.mask	0x00000000,0
	.fmask	0x00000000,0
	.set	noreorder
	.set	nomacro
	.loc 1 4 5 view $LVU1
	.loc 1 5 1 is_stmt 0 view $LVU2
	move	$2,$0
	jr	$31
	nop

	.set	macro
	.set	reorder
	.end	_Z3divii
	.cfi_endproc
$LFE0:
	.size	_Z3divii, .-_Z3divii
	.align	2
	.globl	_Z4sqrti
$LVL1 = .
$LFB1 = .
	.loc 1 8 1 is_stmt 1 view -0
	.cfi_startproc
	.set	nomips16
	.set	nomicromips
	.ent	_Z4sqrti
	.type	_Z4sqrti, @function
_Z4sqrti:
	.frame	$sp,40,$31		# vars= 0, regs= 4/0, args= 16, gp= 8
	.mask	0x80070000,-4
	.fmask	0x00000000,0
	.set	noreorder
	.set	nomacro
	.loc 1 8 1 is_stmt 0 view $LVU4
	addiu	$sp,$sp,-40
	.cfi_def_cfa_offset 40
	sw	$31,36($sp)
	sw	$18,32($sp)
	sw	$17,28($sp)
	sw	$16,24($sp)
	.cfi_offset 31, -4
	.cfi_offset 18, -8
	.cfi_offset 17, -12
	.cfi_offset 16, -16
	move	$18,$4
	.loc 1 9 5 is_stmt 1 view $LVU5
	.loc 1 9 22 is_stmt 0 view $LVU6
	sra	$16,$4,1
$LVL2 = .
	.loc 1 10 5 is_stmt 1 view $LVU7
$LBB2 = .
	.loc 1 10 23 is_stmt 0 view $LVU8
	move	$17,$0
$LVL3 = .
$L4:
	.loc 1 10 32 is_stmt 1 discriminator 3 view $LVU9
	slt	$2,$17,10
	beq	$2,$0,$L2
	nop

	.loc 1 11 9 discriminator 2 view $LVU10
	.loc 1 11 20 is_stmt 0 discriminator 2 view $LVU11
	move	$5,$16
	move	$4,$18
	.option	pic0
	jal	_Z3divii
	nop

	.option	pic2
$LVL4 = .
	.loc 1 11 11 discriminator 2 view $LVU12
	addu	$16,$2,$16
$LVL5 = .
	.loc 1 12 9 is_stmt 1 discriminator 2 view $LVU13
	.loc 1 12 11 is_stmt 0 discriminator 2 view $LVU14
	sra	$16,$16,1
$LVL6 = .
	.loc 1 10 5 is_stmt 1 discriminator 2 view $LVU15
	addiu	$17,$17,1
$LVL7 = .
	.loc 1 10 5 is_stmt 0 discriminator 2 view $LVU16
	.option	pic0
	b	$L4
	nop

	.option	pic2
$L2:
	.loc 1 10 5 discriminator 2 view $LVU17
$LBE2 = .
	.loc 1 15 1 view $LVU18
	move	$2,$16
	lw	$31,36($sp)
	lw	$18,32($sp)
$LVL8 = .
	.loc 1 15 1 view $LVU19
	lw	$17,28($sp)
$LVL9 = .
	.loc 1 15 1 view $LVU20
	lw	$16,24($sp)
$LVL10 = .
	.loc 1 15 1 view $LVU21
	addiu	$sp,$sp,40
	.cfi_restore 16
	.cfi_restore 17
	.cfi_restore 18
	.cfi_restore 31
	.cfi_def_cfa_offset 0
	jr	$31
	nop

	.set	macro
	.set	reorder
	.end	_Z4sqrti
	.cfi_endproc
$LFE1:
	.size	_Z4sqrti, .-_Z4sqrti
$Letext0: